Archive member included because of file (symbol)

/home/angel/bombardier-bsp/emsv5board/tmp/sysroots/ems_v5/usr/lib/arm-poky-linux-gnueabi/4.9.2/libgcc.a(_udivsi3.o)
                              arch/arm/cpu/armv7/built-in.o (__aeabi_uidiv)
/home/angel/bombardier-bsp/emsv5board/tmp/sysroots/ems_v5/usr/lib/arm-poky-linux-gnueabi/4.9.2/libgcc.a(_divsi3.o)
                              common/built-in.o (__aeabi_idiv)
/home/angel/bombardier-bsp/emsv5board/tmp/sysroots/ems_v5/usr/lib/arm-poky-linux-gnueabi/4.9.2/libgcc.a(_lshrdi3.o)
                              fs/built-in.o (__aeabi_llsr)
/home/angel/bombardier-bsp/emsv5board/tmp/sysroots/ems_v5/usr/lib/arm-poky-linux-gnueabi/4.9.2/libgcc.a(_ashldi3.o)
                              drivers/mmc/built-in.o (__aeabi_llsl)
/home/angel/bombardier-bsp/emsv5board/tmp/sysroots/ems_v5/usr/lib/arm-poky-linux-gnueabi/4.9.2/libgcc.a(_dvmd_lnx.o)
                              /home/angel/bombardier-bsp/emsv5board/tmp/sysroots/ems_v5/usr/lib/arm-poky-linux-gnueabi/4.9.2/libgcc.a(_udivsi3.o) (__aeabi_idiv0)

Discarded input sections

 .data          0x0000000000000000        0x0 arch/arm/cpu/armv7/start.o
 .bss           0x0000000000000000        0x0 arch/arm/cpu/armv7/start.o
 .text.v7_outer_cache_flush_all
                0x0000000000000000        0x4 arch/arm/cpu/armv7/built-in.o
 .text.v7_outer_cache_inval_all
                0x0000000000000000        0x4 arch/arm/cpu/armv7/built-in.o
 .text.v7_outer_cache_flush_range
                0x0000000000000000        0x4 arch/arm/cpu/armv7/built-in.o
 .text.v7_outer_cache_inval_range
                0x0000000000000000        0x4 arch/arm/cpu/armv7/built-in.o
 .text.v7_arch_cp15_set_l2aux_ctrl
                0x0000000000000000        0x8 arch/arm/cpu/armv7/built-in.o
 .text.v7_arch_cp15_set_acr
                0x0000000000000000        0x8 arch/arm/cpu/armv7/built-in.o
 .text.sdelay   0x0000000000000000        0xc arch/arm/cpu/armv7/built-in.o
 .text.wait_on_value
                0x0000000000000000       0x34 arch/arm/cpu/armv7/built-in.o
 .text.enable_enet_clk
                0x0000000000000000       0x24 arch/arm/cpu/armv7/built-in.o
 .text.enable_uart_clk
                0x0000000000000000       0x24 arch/arm/cpu/armv7/built-in.o
 .text.enable_usdhc_clk
                0x0000000000000000       0x4c arch/arm/cpu/armv7/built-in.o
 .text.enable_spi_clk
                0x0000000000000000       0x44 arch/arm/cpu/armv7/built-in.o
 .text.enable_fec_anatop_clock
                0x0000000000000000       0x80 arch/arm/cpu/armv7/built-in.o
 .text.enable_sata_clock
                0x0000000000000000       0x1c arch/arm/cpu/armv7/built-in.o
 .text.disable_sata_clock
                0x0000000000000000       0x18 arch/arm/cpu/armv7/built-in.o
 .data          0x0000000000000000        0x0 arch/arm/cpu/armv7/built-in.o
 .bss           0x0000000000000000        0x0 arch/arm/cpu/armv7/built-in.o
 .text          0x0000000000000000        0x0 arch/arm/imx-common/built-in.o
 .text.usec2ticks
                0x0000000000000000       0x68 arch/arm/imx-common/built-in.o
 .text.get_imx_reset_cause
                0x0000000000000000       0x10 arch/arm/imx-common/built-in.o
 .text.set_chipselect_size
                0x0000000000000000       0x84 arch/arm/imx-common/built-in.o
 .text.mxs_wait_mask_set
                0x0000000000000000       0x40 arch/arm/imx-common/built-in.o
 .text.mxs_wait_mask_clr
                0x0000000000000000       0x3c arch/arm/imx-common/built-in.o
 .text.mxs_reset_block
                0x0000000000000000       0x90 arch/arm/imx-common/built-in.o
 .data          0x0000000000000000        0x0 arch/arm/imx-common/built-in.o
 .bss           0x0000000000000000        0x0 arch/arm/imx-common/built-in.o
 .text.flush_cache
                0x0000000000000000        0x4 arch/arm/lib/built-in.o
 .text.flush_dcache_all
                0x0000000000000000        0xc arch/arm/lib/built-in.o
 .text.enable_caches
                0x0000000000000000        0xc arch/arm/lib/built-in.o
 .text.arm_init_before_mmu
                0x0000000000000000        0x4 arch/arm/lib/built-in.o
 .text.mmu_page_table_flush
                0x0000000000000000        0x4 arch/arm/lib/built-in.o
 .rodata.pl310  0x0000000000000000        0x4 arch/arm/lib/built-in.o
 .data          0x0000000000000000        0x0 arch/arm/lib/built-in.o
 .__secure_start
                0x0000000000000000        0x0 arch/arm/lib/built-in.o
 .__secure_end  0x0000000000000000        0x0 arch/arm/lib/built-in.o
 .bss           0x0000000000000000        0x0 arch/arm/lib/built-in.o
 .text          0x0000000000000000        0x0 board/freescale/common/built-in.o
 .text.pfuze_mode_init
                0x0000000000000000       0xa0 board/freescale/common/built-in.o
 .text.pfuze_common_init
                0x0000000000000000      0x10c board/freescale/common/built-in.o
 .rodata.str1.1
                0x0000000000000000       0x3a board/freescale/common/built-in.o
 .data          0x0000000000000000        0x0 board/freescale/common/built-in.o
 .bss           0x0000000000000000        0x0 board/freescale/common/built-in.o
 .comment       0x0000000000000000       0x12 board/freescale/common/built-in.o
 .note.GNU-stack
                0x0000000000000000        0x0 board/freescale/common/built-in.o
 .ARM.attributes
                0x0000000000000000       0x2d board/freescale/common/built-in.o
 .debug_aranges
                0x0000000000000000       0x28 board/freescale/common/built-in.o
 .debug_info    0x0000000000000000      0xa54 board/freescale/common/built-in.o
 .debug_abbrev  0x0000000000000000      0x21a board/freescale/common/built-in.o
 .debug_line    0x0000000000000000      0x15f board/freescale/common/built-in.o
 .debug_frame   0x0000000000000000       0x50 board/freescale/common/built-in.o
 .debug_str     0x0000000000000000      0x8d6 board/freescale/common/built-in.o
 .debug_loc     0x0000000000000000      0x126 board/freescale/common/built-in.o
 .debug_ranges  0x0000000000000000       0x18 board/freescale/common/built-in.o
 .text          0x0000000000000000        0x0 board/freescale/mx6sabresd/built-in.o
 .data          0x0000000000000000        0x0 board/freescale/mx6sabresd/built-in.o
 .bss           0x0000000000000000        0x0 board/freescale/mx6sabresd/built-in.o
 .text          0x0000000000000000        0x0 common/built-in.o
 .text.hash_finish_crc32
                0x0000000000000000       0x30 common/built-in.o
 .text.hash_update_crc32
                0x0000000000000000       0x24 common/built-in.o
 .text.hash_init_crc32
                0x0000000000000000       0x24 common/built-in.o
 .text.hash_lookup_algo
                0x0000000000000000       0x28 common/built-in.o
 .text.hash_progressive_lookup_algo
                0x0000000000000000       0x3c common/built-in.o
 .text.hash_show
                0x0000000000000000       0x58 common/built-in.o
 .text.hash_block
                0x0000000000000000       0x6c common/built-in.o
 .text.unset_local_var
                0x0000000000000000       0xa0 common/built-in.o
 .text.arch_cpu_init
                0x0000000000000000        0x8 common/built-in.o
 .text.red_led_off
                0x0000000000000000        0x4 common/built-in.o
 .text.green_led_on
                0x0000000000000000        0x4 common/built-in.o
 .text.green_led_off
                0x0000000000000000        0x4 common/built-in.o
 .text.yellow_led_on
                0x0000000000000000        0x4 common/built-in.o
 .text.yellow_led_off
                0x0000000000000000        0x4 common/built-in.o
 .text.blue_led_on
                0x0000000000000000        0x4 common/built-in.o
 .text.blue_led_off
                0x0000000000000000        0x4 common/built-in.o
 .text.arch_reserve_stacks
                0x0000000000000000        0x8 common/built-in.o
 .text.board_init_f_mem
                0x0000000000000000       0x30 common/built-in.o
 .text.power_init_board
                0x0000000000000000        0x8 common/built-in.o
 .text.board_flash_wp_on
                0x0000000000000000        0x8 common/built-in.o
 .text.fixup_cpu
                0x0000000000000000        0x8 common/built-in.o
 .text.checkboard
                0x0000000000000000       0x18 common/built-in.o
 .text.bootz_setup
                0x0000000000000000       0x18 common/built-in.o
 .text.arch_preboot_os
                0x0000000000000000        0x4 common/built-in.o
 .text.env_flags_parse_varaccess_from_binflags
                0x0000000000000000       0x28 common/built-in.o
 .text.invalidate_icache_all
                0x0000000000000000        0xc common/built-in.o
 .text.flush_dcache_all
                0x0000000000000000        0xc common/built-in.o
 .text.of_bus_default_map
                0x0000000000000000       0xdc common/built-in.o
 .text.fdt_read_prop
                0x0000000000000000       0x64 common/built-in.o
 .text.of_bus_default_count_cells
                0x0000000000000000       0x58 common/built-in.o
 .text.of_bus_default_translate
                0x0000000000000000       0xa0 common/built-in.o
 .text.fdt_getprop_u32_default_node
                0x0000000000000000       0x40 common/built-in.o
 .text.fdt_getprop_u32_default
                0x0000000000000000       0x3c common/built-in.o
 .text.do_fixup_by_path_u32
                0x0000000000000000       0x2c common/built-in.o
 .text.do_fixup_by_prop
                0x0000000000000000       0x94 common/built-in.o
 .text.do_fixup_by_prop_u32
                0x0000000000000000       0x3c common/built-in.o
 .text.do_fixup_by_compat
                0x0000000000000000       0x88 common/built-in.o
 .text.do_fixup_by_compat_u32
                0x0000000000000000       0x2c common/built-in.o
 .text.fdt_pci_dma_ranges
                0x0000000000000000      0x120 common/built-in.o
 .text.fdt_increase_size
                0x0000000000000000       0x14 common/built-in.o
 .text.fdt_del_node_and_alias
                0x0000000000000000       0x44 common/built-in.o
 .text.fdt_translate_address
                0x0000000000000000      0x29c common/built-in.o
 .text.fdt_node_offset_by_compat_reg
                0x0000000000000000       0x88 common/built-in.o
 .text.fdt_alloc_phandle
                0x0000000000000000       0x58 common/built-in.o
 .text.fdt_set_phandle
                0x0000000000000000       0x60 common/built-in.o
 .text.fdt_create_phandle
                0x0000000000000000       0x64 common/built-in.o
 .text.fdt_set_node_status
                0x0000000000000000      0x118 common/built-in.o
 .text.fdt_set_status_by_alias
                0x0000000000000000       0x2c common/built-in.o
 .text.fdt_add_edid
                0x0000000000000000       0xac common/built-in.o
 .text.fdt_verify_alias_address
                0x0000000000000000       0xcc common/built-in.o
 .text.fdt_get_base_address
                0x0000000000000000       0x54 common/built-in.o
 .text.fdt_read_range
                0x0000000000000000      0x138 common/built-in.o
 .text.fdt_setup_simplefb_node
                0x0000000000000000      0x1fc common/built-in.o
 .text.fdt_fixup_display
                0x0000000000000000       0xd4 common/built-in.o
 .text.legacy_miiphy_read
                0x0000000000000000       0x34 common/built-in.o
 .text.legacy_miiphy_write
                0x0000000000000000       0x1c common/built-in.o
 .text.miiphy_register
                0x0000000000000000      0x108 common/built-in.o
 .text.usb_submit_int_msg
                0x0000000000000000        0x4 common/built-in.o
 .text.usb_set_protocol
                0x0000000000000000       0x4c common/built-in.o
 .text.usb_set_idle
                0x0000000000000000       0x50 common/built-in.o
 .text.usb_get_report
                0x0000000000000000       0x58 common/built-in.o
 .text.usb_get_class_descriptor
                0x0000000000000000       0x58 common/built-in.o
 .text.bounce_buffer_start
                0x0000000000000000       0x88 common/built-in.o
 .text.bounce_buffer_stop
                0x0000000000000000       0x54 common/built-in.o
 .text.fputc    0x0000000000000000       0x1c common/built-in.o
 .text.fputs    0x0000000000000000       0x1c common/built-in.o
 .text.fprintf  0x0000000000000000       0x48 common/built-in.o
 .text.disable_ctrlc
                0x0000000000000000       0x18 common/built-in.o
 .text.valloc   0x0000000000000000        0xc common/built-in.o
 .text.pvalloc  0x0000000000000000       0x18 common/built-in.o
 .text.cfree    0x0000000000000000        0x4 common/built-in.o
 .text.malloc_usable_size
                0x0000000000000000       0x3c common/built-in.o
 .text.mallopt  0x0000000000000000       0x68 common/built-in.o
 .text.get_table_entry_id
                0x0000000000000000       0x4c common/built-in.o
 .text.genimg_get_os_id
                0x0000000000000000       0x18 common/built-in.o
 .text.genimg_get_arch_id
                0x0000000000000000       0x18 common/built-in.o
 .text.genimg_get_type_id
                0x0000000000000000       0x18 common/built-in.o
 .text.genimg_get_comp_id
                0x0000000000000000       0x18 common/built-in.o
 .text.genimg_get_kernel_addr
                0x0000000000000000       0x24 common/built-in.o
 .text.arch_fixup_fdt
                0x0000000000000000        0x8 common/built-in.o
 .text.get_ram_size
                0x0000000000000000       0xe4 common/built-in.o
 .text.stdio_init
                0x0000000000000000       0x14 common/built-in.o
 .text.cli_simple_parse_line
                0x0000000000000000       0x88 common/built-in.o
 .text.cli_simple_process_macros
                0x0000000000000000      0x208 common/built-in.o
 .text.cli_simple_run_command
                0x0000000000000000      0x140 common/built-in.o
 .text.cli_simple_loop
                0x0000000000000000       0x78 common/built-in.o
 .text.cli_simple_run_command_list
                0x0000000000000000       0x70 common/built-in.o
 .text.run_command_repeatable
                0x0000000000000000       0x1c common/built-in.o
 .rodata.__FUNCTION__.8055
                0x0000000000000000       0x17 common/built-in.o
 .rodata.__FUNCTION__.7130
                0x0000000000000000       0x10 common/built-in.o
 .data          0x0000000000000000        0x0 common/built-in.o
 .data.hash_algo
                0x0000000000000000       0x1c common/built-in.o
 .data.of_busses
                0x0000000000000000       0x14 common/built-in.o
 .data.mmap_threshold
                0x0000000000000000        0x4 common/built-in.o
 .bss           0x0000000000000000        0x0 common/built-in.o
 .bss.env_ptr   0x0000000000000000        0x4 common/built-in.o
 .bss.n_mmaps_max
                0x0000000000000000        0x4 common/built-in.o
 .bss.save_addr
                0x0000000000000000        0x4 common/built-in.o
 .bss.save_size
                0x0000000000000000        0x4 common/built-in.o
 .bss.lastcommand.6688
                0x0000000000000000      0x100 common/built-in.o
 .text          0x0000000000000000        0x0 disk/built-in.o
 .text.get_dev  0x0000000000000000        0x8 disk/built-in.o
 .data          0x0000000000000000        0x0 disk/built-in.o
 .bss           0x0000000000000000        0x0 disk/built-in.o
 .text          0x0000000000000000        0x0 drivers/built-in.o
 .text.dev_get_parent_platdata
                0x0000000000000000       0x34 drivers/built-in.o
 .text.dev_get_parentdata
                0x0000000000000000       0x34 drivers/built-in.o
 .text.device_get_child
                0x0000000000000000       0x58 drivers/built-in.o
 .text.device_find_child_by_seq
                0x0000000000000000       0x64 drivers/built-in.o
 .text.device_get_child_by_seq
                0x0000000000000000       0x70 drivers/built-in.o
 .text.device_find_child_by_of_offset
                0x0000000000000000       0x44 drivers/built-in.o
 .text.device_get_child_by_of_offset
                0x0000000000000000       0x3c drivers/built-in.o
 .text.device_find_first_child
                0x0000000000000000       0x1c drivers/built-in.o
 .text.device_find_next_child
                0x0000000000000000       0x28 drivers/built-in.o
 .text.dev_get_parent
                0x0000000000000000        0x8 drivers/built-in.o
 .text.dev_get_of_data
                0x0000000000000000        0xc drivers/built-in.o
 .text.device_get_uclass_id
                0x0000000000000000       0x10 drivers/built-in.o
 .text.dev_get_addr
                0x0000000000000000        0x8 drivers/built-in.o
 .text.device_bind_driver
                0x0000000000000000       0x7c drivers/built-in.o
 .text.dm_uninit
                0x0000000000000000       0x1c drivers/built-in.o
 .text.uclass_destroy
                0x0000000000000000       0xb0 drivers/built-in.o
 .text.uclass_get_device_by_seq
                0x0000000000000000       0x70 drivers/built-in.o
 .text.uclass_get_device_by_of_offset
                0x0000000000000000       0x84 drivers/built-in.o
 .text.uclass_first_device
                0x0000000000000000       0x4c drivers/built-in.o
 .text.uclass_next_device
                0x0000000000000000       0x48 drivers/built-in.o
 .text.dm_dbg   0x0000000000000000       0x28 drivers/built-in.o
 .text.list_count_items
                0x0000000000000000       0x20 drivers/built-in.o
 .text.device_unbind
                0x0000000000000000      0x118 drivers/built-in.o
 .text.board_video_skip
                0x0000000000000000        0x8 drivers/built-in.o
 .text.video_position_cursor
                0x0000000000000000       0x60 drivers/built-in.o
 .text.video_get_pixel_width
                0x0000000000000000       0x14 drivers/built-in.o
 .text.video_get_pixel_height
                0x0000000000000000       0x14 drivers/built-in.o
 .text.video_get_screen_rows
                0x0000000000000000       0x28 drivers/built-in.o
 .text.video_get_screen_columns
                0x0000000000000000       0x18 drivers/built-in.o
 .text.input_tstc
                0x0000000000000000       0x48 drivers/built-in.o
 .text.input_getc
                0x0000000000000000       0x58 drivers/built-in.o
 .text.input_send_keycodes
                0x0000000000000000      0x3b8 drivers/built-in.o
 .text.input_add_table
                0x0000000000000000       0x40 drivers/built-in.o
 .text.input_set_delays
                0x0000000000000000        0xc drivers/built-in.o
 .text.input_init
                0x0000000000000000       0xdc drivers/built-in.o
 .text.input_stdio_register
                0x0000000000000000       0x68 drivers/built-in.o
 .rodata.__func__.8021
                0x0000000000000000       0x18 drivers/built-in.o
 .rodata.__func__.8029
                0x0000000000000000       0x13 drivers/built-in.o
 .rodata.kbd_to_ansi364
                0x0000000000000000       0x20 drivers/built-in.o
 .rodata.kbd_plain_xlate
                0x0000000000000000       0x63 drivers/built-in.o
 .rodata.CSWTCH.28
                0x0000000000000000        0xd drivers/built-in.o
 .data          0x0000000000000000        0x0 drivers/built-in.o
 .data.kbd_ctrl_xlate
                0x0000000000000000       0x63 drivers/built-in.o
 .data.kbd_shift_xlate
                0x0000000000000000       0x63 drivers/built-in.o
 .bss           0x0000000000000000        0x0 drivers/built-in.o
 .text          0x0000000000000000        0x0 drivers/gpio/built-in.o
 .data          0x0000000000000000        0x0 drivers/gpio/built-in.o
 .bss           0x0000000000000000        0x0 drivers/gpio/built-in.o
 .text          0x0000000000000000        0x0 drivers/i2c/built-in.o
 .text.i2c_reloc_fixup
                0x0000000000000000        0x4 drivers/i2c/built-in.o
 .text.i2c_init_board
                0x0000000000000000        0x4 drivers/i2c/built-in.o
 .text.i2c_reg_read
                0x0000000000000000       0x20 drivers/i2c/built-in.o
 .text.i2c_reg_write
                0x0000000000000000       0x20 drivers/i2c/built-in.o
 .text.i2c_get_base
                0x0000000000000000       0x14 drivers/i2c/built-in.o
 .data          0x0000000000000000        0x0 drivers/i2c/built-in.o
 .bss           0x0000000000000000        0x0 drivers/i2c/built-in.o
 .text          0x0000000000000000        0x0 drivers/mmc/built-in.o
 .text.fdt_fixup_esdhc
                0x0000000000000000       0x58 drivers/mmc/built-in.o
 .text.board_mmc_getcd
                0x0000000000000000        0x8 drivers/mmc/built-in.o
 .text.mmc_register
                0x0000000000000000       0x20 drivers/mmc/built-in.o
 .text.mmc_destroy
                0x0000000000000000        0x4 drivers/mmc/built-in.o
 .text.cpu_mmc_init
                0x0000000000000000        0x8 drivers/mmc/built-in.o
 .text.board_mmc_init
                0x0000000000000000        0x8 drivers/mmc/built-in.o
 .text.mmc_set_preinit
                0x0000000000000000        0x8 drivers/mmc/built-in.o
 .rodata.__func__.7158
                0x0000000000000000        0xd drivers/mmc/built-in.o
 .data          0x0000000000000000        0x0 drivers/mmc/built-in.o
 .bss           0x0000000000000000        0x0 drivers/mmc/built-in.o
 .text          0x0000000000000000        0x0 drivers/mtd/spi/built-in.o
 .text.spi_flash_cmd_read_status
                0x0000000000000000       0x2c drivers/mtd/spi/built-in.o
 .data          0x0000000000000000        0x0 drivers/mtd/spi/built-in.o
 .bss           0x0000000000000000        0x0 drivers/mtd/spi/built-in.o
 .text          0x0000000000000000        0x0 drivers/net/built-in.o
 .data          0x0000000000000000        0x0 drivers/net/built-in.o
 .bss           0x0000000000000000        0x0 drivers/net/built-in.o
 .text          0x0000000000000000        0x0 drivers/net/phy/built-in.o
 .text.miiphy_reset
                0x0000000000000000       0x24 drivers/net/phy/built-in.o
 .text.phy_connect
                0x0000000000000000       0x50 drivers/net/phy/built-in.o
 .text.board_phy_config
                0x0000000000000000       0x1c drivers/net/phy/built-in.o
 .text.phy_shutdown
                0x0000000000000000       0x20 drivers/net/phy/built-in.o
 .data          0x0000000000000000        0x0 drivers/net/phy/built-in.o
 .bss           0x0000000000000000        0x0 drivers/net/phy/built-in.o
 .text          0x0000000000000000        0x0 drivers/pci/built-in.o
 .text.find_hose_by_cfg_addr
                0x0000000000000000       0x2c drivers/pci/built-in.o
 .text.pci_last_busno
                0x0000000000000000       0x30 drivers/pci/built-in.o
 .text.pci_find_class
                0x0000000000000000       0xb4 drivers/pci/built-in.o
 .text.__pci_hose_phys_to_bus
                0x0000000000000000       0x78 drivers/pci/built-in.o
 .text.pci_hose_phys_to_bus
                0x0000000000000000       0x74 drivers/pci/built-in.o
 .text.__pci_hose_bus_to_phys
                0x0000000000000000       0x80 drivers/pci/built-in.o
 .text.pci_hose_bus_to_phys
                0x0000000000000000       0x74 drivers/pci/built-in.o
 .text.pci_map_bar
                0x0000000000000000       0x38 drivers/pci/built-in.o
 .text.pci_write_bar32
                0x0000000000000000        0xc drivers/pci/built-in.o
 .text.pci_read_bar32
                0x0000000000000000       0x2c drivers/pci/built-in.o
 .text.pci_hose_config_device
                0x0000000000000000      0x1d0 drivers/pci/built-in.o
 .text.pci_find_config
                0x0000000000000000       0x98 drivers/pci/built-in.o
 .text.pci_cfgfunc_config_device
                0x0000000000000000       0x24 drivers/pci/built-in.o
 .text.pci_cfgfunc_do_nothing
                0x0000000000000000        0x4 drivers/pci/built-in.o
 .text.pci_find_devices
                0x0000000000000000      0x10c drivers/pci/built-in.o
 .text.pci_find_device
                0x0000000000000000       0x3c drivers/pci/built-in.o
 .text.pci_hose_find_cap_start
                0x0000000000000000       0x48 drivers/pci/built-in.o
 .text.pci_find_cap
                0x0000000000000000       0x80 drivers/pci/built-in.o
 .text.pci_hose_find_capability
                0x0000000000000000       0x58 drivers/pci/built-in.o
 .text.pciauto_setup_rom
                0x0000000000000000       0xb4 drivers/pci/built-in.o
 .text.board_should_run_oprom
                0x0000000000000000        0x8 drivers/pci/built-in.o
 .text.board_map_oprom_vendev
                0x0000000000000000        0x4 drivers/pci/built-in.o
 .text.pci_rom_load
                0x0000000000000000       0xbc drivers/pci/built-in.o
 .text.vbe_get_video_info
                0x0000000000000000        0x8 drivers/pci/built-in.o
 .text.pci_run_vga_bios
                0x0000000000000000      0x1a4 drivers/pci/built-in.o
 .data          0x0000000000000000        0x0 drivers/pci/built-in.o
 .bss           0x0000000000000000        0x0 drivers/pci/built-in.o
 .text          0x0000000000000000        0x0 drivers/power/built-in.o
 .text.pmic_set_output
                0x0000000000000000       0x60 drivers/power/built-in.o
 .text.pmic_alloc
                0x0000000000000000       0x58 drivers/power/built-in.o
 .text.pmic_probe
                0x0000000000000000       0x38 drivers/power/built-in.o
 .rodata.__func__.6965
                0x0000000000000000        0xb drivers/power/built-in.o
 .data          0x0000000000000000        0x0 drivers/power/built-in.o
 .bss           0x0000000000000000        0x0 drivers/power/built-in.o
 .text          0x0000000000000000        0x0 drivers/power/pmic/built-in.o
 .text.power_pfuze100_init
                0x0000000000000000       0x68 drivers/power/pmic/built-in.o
 .rodata.__func__.6930
                0x0000000000000000       0x14 drivers/power/pmic/built-in.o
 .rodata.name.6928
                0x0000000000000000        0x9 drivers/power/pmic/built-in.o
 .rodata.str1.1
                0x0000000000000000       0x1d drivers/power/pmic/built-in.o
 .data          0x0000000000000000        0x0 drivers/power/pmic/built-in.o
 .bss           0x0000000000000000        0x0 drivers/power/pmic/built-in.o
 .comment       0x0000000000000000       0x12 drivers/power/pmic/built-in.o
 .note.GNU-stack
                0x0000000000000000        0x0 drivers/power/pmic/built-in.o
 .ARM.attributes
                0x0000000000000000       0x2d drivers/power/pmic/built-in.o
 .debug_aranges
                0x0000000000000000       0x20 drivers/power/pmic/built-in.o
 .debug_info    0x0000000000000000      0x821 drivers/power/pmic/built-in.o
 .debug_abbrev  0x0000000000000000      0x1d8 drivers/power/pmic/built-in.o
 .debug_line    0x0000000000000000      0x121 drivers/power/pmic/built-in.o
 .debug_frame   0x0000000000000000       0x28 drivers/power/pmic/built-in.o
 .debug_str     0x0000000000000000      0x89e drivers/power/pmic/built-in.o
 .debug_loc     0x0000000000000000       0x3f drivers/power/pmic/built-in.o
 .debug_ranges  0x0000000000000000       0x10 drivers/power/pmic/built-in.o
 .text          0x0000000000000000        0x0 drivers/serial/built-in.o
 .text.serial_reinit_all
                0x0000000000000000       0x2c drivers/serial/built-in.o
 .data          0x0000000000000000        0x0 drivers/serial/built-in.o
 .bss           0x0000000000000000        0x0 drivers/serial/built-in.o
 .text          0x0000000000000000        0x0 drivers/spi/built-in.o
 .text.spi_set_wordlen
                0x0000000000000000       0x30 drivers/spi/built-in.o
 .text.board_spi_cs_gpio
                0x0000000000000000        0x8 drivers/spi/built-in.o
 .text.get_cspi_div
                0x0000000000000000       0x24 drivers/spi/built-in.o
 .text.spi_init
                0x0000000000000000        0x4 drivers/spi/built-in.o
 .data          0x0000000000000000        0x0 drivers/spi/built-in.o
 .bss           0x0000000000000000        0x0 drivers/spi/built-in.o
 .text          0x0000000000000000        0x0 drivers/usb/eth/built-in.o
 .text.is_eth_dev_on_usb_host
                0x0000000000000000       0x60 drivers/usb/eth/built-in.o
 .data          0x0000000000000000        0x0 drivers/usb/eth/built-in.o
 .bss           0x0000000000000000        0x0 drivers/usb/eth/built-in.o
 .text          0x0000000000000000        0x0 drivers/usb/gadget/built-in.o
 .text.usb_gadget_config_buf
                0x0000000000000000       0x94 drivers/usb/gadget/built-in.o
 .text.dfu_usb_get_reset
                0x0000000000000000       0x1c drivers/usb/gadget/built-in.o
 .text.usb_function_deactivate
                0x0000000000000000       0x58 drivers/usb/gadget/built-in.o
 .text.usb_function_activate
                0x0000000000000000       0x58 drivers/usb/gadget/built-in.o
 .text.usb_string_ids_tab
                0x0000000000000000       0x40 drivers/usb/gadget/built-in.o
 .text.usb_string_ids_n
                0x0000000000000000       0x2c drivers/usb/gadget/built-in.o
 .text.g_dnl_set_serialnumber
                0x0000000000000000       0x48 drivers/usb/gadget/built-in.o
 .text.g_dnl_detach
                0x0000000000000000       0x10 drivers/usb/gadget/built-in.o
 .text.g_dnl_trigger_detach
                0x0000000000000000       0x14 drivers/usb/gadget/built-in.o
 .text.g_dnl_clear_detach
                0x0000000000000000       0x14 drivers/usb/gadget/built-in.o
 .text.set_bit  0x0000000000000000       0x1c drivers/usb/gadget/built-in.o
 .text.clear_bit
                0x0000000000000000       0x1c drivers/usb/gadget/built-in.o
 .data          0x0000000000000000        0x0 drivers/usb/gadget/built-in.o
 .bss           0x0000000000000000        0x0 drivers/usb/gadget/built-in.o
 .bss.g_dnl_detach_request
                0x0000000000000000        0x1 drivers/usb/gadget/built-in.o
 .text          0x0000000000000000        0x0 drivers/usb/host/built-in.o
 .text.ehci_get_port_speed
                0x0000000000000000        0x8 drivers/usb/host/built-in.o
 .text.ehci_set_usbmode
                0x0000000000000000       0x20 drivers/usb/host/built-in.o
 .text.board_ehci_hcd_init
                0x0000000000000000        0x8 drivers/usb/host/built-in.o
 .text.board_ehci_power
                0x0000000000000000        0x8 drivers/usb/host/built-in.o
 .data          0x0000000000000000        0x0 drivers/usb/host/built-in.o
 .bss           0x0000000000000000        0x0 drivers/usb/host/built-in.o
 .text          0x0000000000000000        0x0 fs/built-in.o
 .text.fs_uuid  0x0000000000000000       0x28 fs/built-in.o
 .text.do_fs_uuid
                0x0000000000000000       0x90 fs/built-in.o
 .text.do_fs_type
                0x0000000000000000       0x78 fs/built-in.o
 .text.print_revoke_blks
                0x0000000000000000       0x54 fs/built-in.o
 .text.fat_register_device
                0x0000000000000000       0x88 fs/built-in.o
 .text.file_fat_read
                0x0000000000000000       0x38 fs/built-in.o
 .text.file_getfsname
                0x0000000000000000       0x14 fs/built-in.o
 .text.file_cd  0x0000000000000000      0x1bc fs/built-in.o
 .text.file_detectfs
                0x0000000000000000       0x40 fs/built-in.o
 .text.file_ls  0x0000000000000000       0x98 fs/built-in.o
 .text.file_read
                0x0000000000000000       0xa8 fs/built-in.o
 .rodata.filesystems
                0x0000000000000000       0x18 fs/built-in.o
 .data          0x0000000000000000        0x0 fs/built-in.o
 .data.file_cwd
                0x0000000000000000      0x200 fs/built-in.o
 .data.current_filesystem
                0x0000000000000000        0x4 fs/built-in.o
 .bss           0x0000000000000000        0x0 fs/built-in.o
 .bss.ext4fs_symlinknest
                0x0000000000000000        0x4 fs/built-in.o
 .text          0x0000000000000000        0x0 lib/built-in.o
 .text.inflateInit_
                0x0000000000000000       0x14 lib/built-in.o
 .text.fdt_first_subnode
                0x0000000000000000       0x34 lib/built-in.o
 .text.fdt_next_subnode
                0x0000000000000000       0x50 lib/built-in.o
 .text.fdt_getprop_by_offset
                0x0000000000000000       0x48 lib/built-in.o
 .text.fdt_get_phandle
                0x0000000000000000       0x70 lib/built-in.o
 .text.fdt_get_alias
                0x0000000000000000       0x28 lib/built-in.o
 .text.fdt_get_path
                0x0000000000000000      0x138 lib/built-in.o
 .text.fdt_parent_offset
                0x0000000000000000       0x30 lib/built-in.o
 .text.fdt_node_offset_by_prop_value
                0x0000000000000000       0x9c lib/built-in.o
 .text.fdt_node_offset_by_phandle
                0x0000000000000000       0x78 lib/built-in.o
 .text.fdt_stringlist_contains
                0x0000000000000000       0x7c lib/built-in.o
 .text.fdt_count_strings
                0x0000000000000000       0x5c lib/built-in.o
 .text.fdt_find_string
                0x0000000000000000       0x8c lib/built-in.o
 .text.fdt_get_string_index
                0x0000000000000000       0x64 lib/built-in.o
 .text.fdt_get_string
                0x0000000000000000       0x18 lib/built-in.o
 .text.fdt_node_check_compatible
                0x0000000000000000       0x40 lib/built-in.o
 .text.fdt_node_offset_by_compatible
                0x0000000000000000       0x74 lib/built-in.o
 .text.fdt_set_name
                0x0000000000000000       0x88 lib/built-in.o
 .text.fdt_appendprop
                0x0000000000000000       0xd0 lib/built-in.o
 .text.fdt_pack
                0x0000000000000000       0x5c lib/built-in.o
 .text._fdt_sw_check_header
                0x0000000000000000       0x1c lib/built-in.o
 .text._fdt_grab_space
                0x0000000000000000       0x6c lib/built-in.o
 .text.fdt_create
                0x0000000000000000       0x64 lib/built-in.o
 .text.fdt_resize
                0x0000000000000000       0xb4 lib/built-in.o
 .text.fdt_add_reservemap_entry
                0x0000000000000000       0x90 lib/built-in.o
 .text.fdt_finish_reservemap
                0x0000000000000000       0x1c lib/built-in.o
 .text.fdt_begin_node
                0x0000000000000000       0x68 lib/built-in.o
 .text.fdt_end_node
                0x0000000000000000       0x40 lib/built-in.o
 .text.fdt_property
                0x0000000000000000      0x114 lib/built-in.o
 .text.fdt_finish
                0x0000000000000000      0x100 lib/built-in.o
 .text.fdt_setprop_inplace
                0x0000000000000000       0x44 lib/built-in.o
 .text.fdt_nop_property
                0x0000000000000000       0x40 lib/built-in.o
 .text.fdt_nop_node
                0x0000000000000000       0x50 lib/built-in.o
 .text.fdt_find_regions
                0x0000000000000000      0x39c lib/built-in.o
 .text.fdt_create_empty_tree
                0x0000000000000000       0x74 lib/built-in.o
 .text.crc7     0x0000000000000000       0x24 lib/built-in.o
 .text.crc8     0x0000000000000000       0x40 lib/built-in.o
 .text.gzwrite_progress_init
                0x0000000000000000        0x8 lib/built-in.o
 .text.gzwrite_progress
                0x0000000000000000       0x20 lib/built-in.o
 .text.gzwrite_progress_finish
                0x0000000000000000       0x50 lib/built-in.o
 .text.gzwrite  0x0000000000000000      0x4a0 lib/built-in.o
 .text.lmb_dump_all
                0x0000000000000000        0x4 lib/built-in.o
 .text.lmb_is_reserved
                0x0000000000000000       0x5c lib/built-in.o
 .text.arch_lmb_reserve
                0x0000000000000000        0x4 lib/built-in.o
 .text.ldiv     0x0000000000000000       0x50 lib/built-in.o
 .text.strmhz   0x0000000000000000       0x64 lib/built-in.o
 .text.merge    0x0000000000000000       0x68 lib/built-in.o
 .text.list_sort
                0x0000000000000000      0x198 lib/built-in.o
 .text.crc32_wd_buf
                0x0000000000000000       0x40 lib/built-in.o
 .text.copy_from_user
                0x0000000000000000       0x10 lib/built-in.o
 .text.kmalloc  0x0000000000000000        0xc lib/built-in.o
 .text.kzalloc  0x0000000000000000       0x2c lib/built-in.o
 .text.vzalloc  0x0000000000000000        0x8 lib/built-in.o
 .text.get_mem  0x0000000000000000       0x1c lib/built-in.o
 .text.kmem_cache_alloc
                0x0000000000000000       0x10 lib/built-in.o
 .text.strncasecmp
                0x0000000000000000       0x9c lib/built-in.o
 .text.strcasecmp
                0x0000000000000000        0x8 lib/built-in.o
 .text.strsep   0x0000000000000000       0x38 lib/built-in.o
 .text.strswab  0x0000000000000000       0x48 lib/built-in.o
 .text.bcopy    0x0000000000000000       0x24 lib/built-in.o
 .text.memscan  0x0000000000000000       0x2c lib/built-in.o
 .text.memchr_inv
                0x0000000000000000      0x130 lib/built-in.o
 .text.tick_to_time
                0x0000000000000000       0x64 lib/built-in.o
 .text.get_ticks
                0x0000000000000000       0x40 lib/built-in.o
 .text.timer_init
                0x0000000000000000        0x8 lib/built-in.o
 .text.get_timer
                0x0000000000000000       0x18 lib/built-in.o
 .text.timer_get_us
                0x0000000000000000       0x24 lib/built-in.o
 .text.__udelay
                0x0000000000000000       0x9c lib/built-in.o
 .text.__assert_fail
                0x0000000000000000       0x14 lib/built-in.o
 .text.print_grouped_ull
                0x0000000000000000       0x88 lib/built-in.o
 .rodata.z_errmsg
                0x0000000000000000       0x28 lib/built-in.o
 .rodata.crc7_syndrome_table
                0x0000000000000000      0x100 lib/built-in.o
 .rodata.__func__.6842
                0x0000000000000000        0x8 lib/built-in.o
 .data          0x0000000000000000        0x0 lib/built-in.o
 .data.cur      0x0000000000000000        0x4 lib/built-in.o
 .data.current  0x0000000000000000        0x4 lib/built-in.o
 .bss           0x0000000000000000        0x0 lib/built-in.o
 .text          0x0000000000000000        0x0 net/built-in.o
 .text.add_ip_checksums
                0x0000000000000000       0x3c net/built-in.o
 .text.eth_get_dev_by_name
                0x0000000000000000       0x84 net/built-in.o
 .text.net_get_udp_handler
                0x0000000000000000       0x10 net/built-in.o
 .text.net_set_arp_handler
                0x0000000000000000       0x20 net/built-in.o
 .text.random_port
                0x0000000000000000       0x18 net/built-in.o
 .text.VLAN_to_string
                0x0000000000000000       0x3c net/built-in.o
 .rodata.__FUNCTION__.7073
                0x0000000000000000       0x14 net/built-in.o
 .data          0x0000000000000000        0x0 net/built-in.o
 .data.TftpRRQTimeoutMSecs
                0x0000000000000000        0x4 net/built-in.o
 .bss           0x0000000000000000        0x0 net/built-in.o
 .bss.net_busy_flag
                0x0000000000000000        0x4 net/built-in.o
 .text          0x0000000000000000        0x0 test/dm/built-in.o
 .data          0x0000000000000000        0x0 test/dm/built-in.o
 .bss           0x0000000000000000        0x0 test/dm/built-in.o
 .text          0x0000000000000000        0x0 arch/arm/lib/eabi_compat.o
 .data          0x0000000000000000        0x0 arch/arm/lib/eabi_compat.o
 .bss           0x0000000000000000        0x0 arch/arm/lib/eabi_compat.o
 .text.__aeabi_unwind_cpp_pr0
                0x0000000000000000        0x4 arch/arm/lib/eabi_compat.o
 .text.__aeabi_unwind_cpp_pr1
                0x0000000000000000        0x4 arch/arm/lib/eabi_compat.o
 .text.__aeabi_memcpy
                0x0000000000000000        0x4 arch/arm/lib/eabi_compat.o
 .text.__aeabi_memset
                0x0000000000000000       0x10 arch/arm/lib/eabi_compat.o
 .data          0x0000000000000000        0x0 /home/angel/bombardier-bsp/emsv5board/tmp/sysroots/ems_v5/usr/lib/arm-poky-linux-gnueabi/4.9.2/libgcc.a(_udivsi3.o)
 .bss           0x0000000000000000        0x0 /home/angel/bombardier-bsp/emsv5board/tmp/sysroots/ems_v5/usr/lib/arm-poky-linux-gnueabi/4.9.2/libgcc.a(_udivsi3.o)
 .data          0x0000000000000000        0x0 /home/angel/bombardier-bsp/emsv5board/tmp/sysroots/ems_v5/usr/lib/arm-poky-linux-gnueabi/4.9.2/libgcc.a(_divsi3.o)
 .bss           0x0000000000000000        0x0 /home/angel/bombardier-bsp/emsv5board/tmp/sysroots/ems_v5/usr/lib/arm-poky-linux-gnueabi/4.9.2/libgcc.a(_divsi3.o)
 .data          0x0000000000000000        0x0 /home/angel/bombardier-bsp/emsv5board/tmp/sysroots/ems_v5/usr/lib/arm-poky-linux-gnueabi/4.9.2/libgcc.a(_lshrdi3.o)
 .bss           0x0000000000000000        0x0 /home/angel/bombardier-bsp/emsv5board/tmp/sysroots/ems_v5/usr/lib/arm-poky-linux-gnueabi/4.9.2/libgcc.a(_lshrdi3.o)
 .data          0x0000000000000000        0x0 /home/angel/bombardier-bsp/emsv5board/tmp/sysroots/ems_v5/usr/lib/arm-poky-linux-gnueabi/4.9.2/libgcc.a(_ashldi3.o)
 .bss           0x0000000000000000        0x0 /home/angel/bombardier-bsp/emsv5board/tmp/sysroots/ems_v5/usr/lib/arm-poky-linux-gnueabi/4.9.2/libgcc.a(_ashldi3.o)
 .data          0x0000000000000000        0x0 /home/angel/bombardier-bsp/emsv5board/tmp/sysroots/ems_v5/usr/lib/arm-poky-linux-gnueabi/4.9.2/libgcc.a(_dvmd_lnx.o)
 .bss           0x0000000000000000        0x0 /home/angel/bombardier-bsp/emsv5board/tmp/sysroots/ems_v5/usr/lib/arm-poky-linux-gnueabi/4.9.2/libgcc.a(_dvmd_lnx.o)

Memory Configuration

Name             Origin             Length             Attributes
*default*        0x0000000000000000 0xffffffffffffffff

Linker script and memory map

Address of section .text set to 0x17800000
                0x0000000000000000                . = 0x0
                0x0000000000000000                . = ALIGN (0x4)

.text           0x0000000017800000    0x43468
 *(.__image_copy_start)
 .__image_copy_start
                0x0000000017800000        0x0 arch/arm/lib/built-in.o
                0x0000000017800000                __image_copy_start
 *(.vectors)
 .vectors       0x0000000017800000      0x300 arch/arm/lib/built-in.o
                0x0000000017800000                _start
                0x0000000017800020                _undefined_instruction
                0x0000000017800024                _software_interrupt
                0x0000000017800028                _prefetch_abort
                0x000000001780002c                _data_abort
                0x0000000017800030                _not_used
                0x0000000017800034                _irq
                0x0000000017800038                _fiq
                0x0000000017800040                IRQ_STACK_START_IN
 arch/arm/cpu/armv7/start.o(.text*)
 .text          0x0000000017800300       0xe0 arch/arm/cpu/armv7/start.o
                0x0000000017800300                reset
                0x0000000017800304                save_boot_params_ret
                0x0000000017800340                c_runtime_cpu_setup
                0x0000000017800350                save_boot_params
                0x0000000017800354                cpu_init_cp15
                0x00000000178003d8                cpu_init_crit
 *(.text*)
 .text          0x00000000178003e0       0x1c arch/arm/cpu/armv7/built-in.o
                0x00000000178003e0                lowlevel_init
 .text.v7_maint_dcache_all
                0x00000000178003fc       0xd0 arch/arm/cpu/armv7/built-in.o
 .text.invalidate_icache_all
                0x00000000178004cc       0x18 arch/arm/cpu/armv7/built-in.o
                0x00000000178004cc                invalidate_icache_all
 .text.v7_outer_cache_enable
                0x00000000178004e4       0x58 arch/arm/cpu/armv7/built-in.o
                0x00000000178004e8                v7_outer_cache_enable
 .text.v7_outer_cache_disable
                0x000000001780053c       0x1c arch/arm/cpu/armv7/built-in.o
                0x0000000017800540                v7_outer_cache_disable
 .text.flush_dcache_all
                0x0000000017800558       0x14 arch/arm/cpu/armv7/built-in.o
                0x0000000017800558                flush_dcache_all
 .text.invalidate_dcache_all
                0x000000001780056c       0x14 arch/arm/cpu/armv7/built-in.o
                0x000000001780056c                invalidate_dcache_all
 .text.arm_init_before_mmu
                0x0000000017800580       0x28 arch/arm/cpu/armv7/built-in.o
                0x0000000017800580                arm_init_before_mmu
 .text.flush_dcache_range
                0x00000000178005a8       0x3c arch/arm/cpu/armv7/built-in.o
                0x00000000178005a8                flush_dcache_range
 .text.mmu_page_table_flush
                0x00000000178005e4       0x24 arch/arm/cpu/armv7/built-in.o
                0x00000000178005e4                mmu_page_table_flush
 .text.flush_cache
                0x0000000017800608        0x8 arch/arm/cpu/armv7/built-in.o
                0x0000000017800608                flush_cache
 .text.invalidate_dcache_range
                0x0000000017800610       0xac arch/arm/cpu/armv7/built-in.o
                0x0000000017800610                invalidate_dcache_range
 .text.cpu_cache_initialization
                0x00000000178006bc        0x4 arch/arm/cpu/armv7/built-in.o
                0x00000000178006bc                cpu_cache_initialization
 .text.cleanup_before_linux
                0x00000000178006c0       0x28 arch/arm/cpu/armv7/built-in.o
                0x00000000178006c0                cleanup_before_linux
 .text.get_nr_cpus
                0x00000000178006e8       0x10 arch/arm/cpu/armv7/built-in.o
                0x00000000178006e8                get_nr_cpus
 .text.get_cpu_rev
                0x00000000178006f8       0x60 arch/arm/cpu/armv7/built-in.o
                0x00000000178006f8                get_cpu_rev
 .text.get_cpu_speed_grade_hz
                0x0000000017800758       0xb0 arch/arm/cpu/armv7/built-in.o
                0x0000000017800758                get_cpu_speed_grade_hz
 .text.get_cpu_temp_grade
                0x0000000017800808       0x68 arch/arm/cpu/armv7/built-in.o
                0x0000000017800808                get_cpu_temp_grade
 .text.get_board_rev
                0x0000000017800870       0x30 arch/arm/cpu/armv7/built-in.o
                0x0000000017800870                get_board_rev
 .text.init_aips
                0x00000000178008a0       0x58 arch/arm/cpu/armv7/built-in.o
                0x00000000178008a0                init_aips
 .text.arch_cpu_init
                0x00000000178008f8       0xac arch/arm/cpu/armv7/built-in.o
                0x00000000178008f8                arch_cpu_init
 .text.board_postclk_init
                0x00000000178009a4       0x50 arch/arm/cpu/armv7/built-in.o
                0x00000000178009a4                board_postclk_init
 .text.enable_caches
                0x00000000178009f4       0x34 arch/arm/cpu/armv7/built-in.o
                0x00000000178009f4                enable_caches
 .text.imx_get_mac_from_fuse
                0x0000000017800a28       0x3c arch/arm/cpu/armv7/built-in.o
                0x0000000017800a28                imx_get_mac_from_fuse
 .text.boot_mode_apply
                0x0000000017800a64       0x24 arch/arm/cpu/armv7/built-in.o
                0x0000000017800a64                boot_mode_apply
 .text.s_init   0x0000000017800a88       0x78 arch/arm/cpu/armv7/built-in.o
                0x0000000017800a88                s_init
 .text.imx_enable_hdmi_phy
                0x0000000017800b00       0x4c arch/arm/cpu/armv7/built-in.o
                0x0000000017800b00                imx_enable_hdmi_phy
 .text.imx_setup_hdmi
                0x0000000017800b4c       0x38 arch/arm/cpu/armv7/built-in.o
                0x0000000017800b4c                imx_setup_hdmi
 .text.enable_enet_pll
                0x0000000017800b84       0x68 arch/arm/cpu/armv7/built-in.o
 .text.get_ipg_clk
                0x0000000017800bec       0x28 arch/arm/cpu/armv7/built-in.o
 .text.get_uart_clk
                0x0000000017800c14       0x54 arch/arm/cpu/armv7/built-in.o
 .text.mxc_get_pll_pfd
                0x0000000017800c68       0xa0 arch/arm/cpu/armv7/built-in.o
 .text.get_usdhc_clk
                0x0000000017800d08       0x90 arch/arm/cpu/armv7/built-in.o
 .text.enable_ocotp_clk
                0x0000000017800d98       0x24 arch/arm/cpu/armv7/built-in.o
                0x0000000017800d98                enable_ocotp_clk
 .text.enable_usboh3_clk
                0x0000000017800dbc       0x24 arch/arm/cpu/armv7/built-in.o
                0x0000000017800dbc                enable_usboh3_clk
 .text.enable_i2c_clk
                0x0000000017800de0       0x68 arch/arm/cpu/armv7/built-in.o
                0x0000000017800de0                enable_i2c_clk
 .text.get_periph_clk
                0x0000000017800e48       0xb8 arch/arm/cpu/armv7/built-in.o
                0x0000000017800e48                get_periph_clk
 .text.get_axi_clk
                0x0000000017800f00       0x4c arch/arm/cpu/armv7/built-in.o
 .text.imx_get_uartclk
                0x0000000017800f4c        0x4 arch/arm/cpu/armv7/built-in.o
                0x0000000017800f4c                imx_get_uartclk
 .text.enable_pcie_clock
                0x0000000017800f50       0x70 arch/arm/cpu/armv7/built-in.o
                0x0000000017800f50                enable_pcie_clock
 .text.enable_thermal_clk
                0x0000000017800fc0       0x48 arch/arm/cpu/armv7/built-in.o
                0x0000000017800fc0                enable_thermal_clk
 .text.mxc_get_clock
                0x0000000017801008      0x1cc arch/arm/cpu/armv7/built-in.o
                0x0000000017801008                mxc_get_clock
 .text.imx_get_fecclk
                0x00000000178011d4        0x8 arch/arm/cpu/armv7/built-in.o
                0x00000000178011d4                imx_get_fecclk
 .text.do_mx6_showclocks
                0x00000000178011dc      0x24c arch/arm/cpu/armv7/built-in.o
                0x00000000178011dc                do_mx6_showclocks
 .text.enable_ipu_clock
                0x0000000017801428       0x18 arch/arm/cpu/armv7/built-in.o
                0x0000000017801428                enable_ipu_clock
 .text.cpu_reset
                0x0000000017801440       0x28 arch/arm/cpu/armv7/built-in.o
                0x0000000017801440                cpu_reset
 .text.cpu_status
                0x0000000017801468       0x40 arch/arm/cpu/armv7/built-in.o
                0x0000000017801468                cpu_status
 .text.cpu_release
                0x00000000178014a8       0x80 arch/arm/cpu/armv7/built-in.o
                0x00000000178014a8                cpu_release
 .text.is_core_valid
                0x0000000017801528       0x1c arch/arm/cpu/armv7/built-in.o
                0x0000000017801528                is_core_valid
 .text.cpu_disable
                0x0000000017801544       0x28 arch/arm/cpu/armv7/built-in.o
                0x0000000017801544                cpu_disable
 .text.imx_iomux_v3_setup_pad
                0x000000001780156c       0xb8 arch/arm/imx-common/built-in.o
                0x000000001780156c                imx_iomux_v3_setup_pad
 .text.imx_iomux_v3_setup_multiple_pads
                0x0000000017801624       0x2c arch/arm/imx-common/built-in.o
                0x0000000017801624                imx_iomux_v3_setup_multiple_pads
 .text.imx_iomux_set_gpr_register
                0x0000000017801650       0x3c arch/arm/imx-common/built-in.o
                0x0000000017801650                imx_iomux_set_gpr_register
 .text.timer_init
                0x000000001780168c      0x108 arch/arm/imx-common/built-in.o
                0x000000001780168c                timer_init
 .text.get_ticks
                0x0000000017801794       0x44 arch/arm/imx-common/built-in.o
                0x0000000017801794                get_ticks
 .text.get_timer_masked
                0x00000000178017d8       0xdc arch/arm/imx-common/built-in.o
                0x00000000178017d8                get_timer_masked
 .text.get_timer
                0x00000000178018b4       0x14 arch/arm/imx-common/built-in.o
                0x00000000178018b4                get_timer
 .text.__udelay
                0x00000000178018c8      0x114 arch/arm/imx-common/built-in.o
                0x00000000178018c8                __udelay
 .text.get_tbclk
                0x00000000178019dc       0x80 arch/arm/imx-common/built-in.o
                0x00000000178019dc                get_tbclk
 .text.imx_ddr_size
                0x0000000017801a5c       0x64 arch/arm/imx-common/built-in.o
                0x0000000017801a5c                imx_ddr_size
 .text.get_imx_type
                0x0000000017801ac0       0x20 arch/arm/imx-common/built-in.o
                0x0000000017801ac0                get_imx_type
 .text.print_cpuinfo
                0x0000000017801ae0      0x210 arch/arm/imx-common/built-in.o
                0x0000000017801ae0                print_cpuinfo
 .text.cpu_eth_init
                0x0000000017801cf0        0x4 arch/arm/imx-common/built-in.o
                0x0000000017801cf0                cpu_eth_init
 .text.cpu_mmc_init
                0x0000000017801cf4        0x4 arch/arm/imx-common/built-in.o
                0x0000000017801cf4                cpu_mmc_init
 .text.get_ahb_clk
                0x0000000017801cf8       0x24 arch/arm/imx-common/built-in.o
                0x0000000017801cf8                get_ahb_clk
 .text.arch_preboot_os
                0x0000000017801d1c        0x4 arch/arm/imx-common/built-in.o
                0x0000000017801d1c                arch_preboot_os
 .text.get_clocks
                0x0000000017801d20       0x1c arch/arm/imx-common/built-in.o
                0x0000000017801d20                get_clocks
 .text.force_idle_bus
                0x0000000017801d3c      0x124 arch/arm/imx-common/built-in.o
 .text.setup_i2c
                0x0000000017801e60       0xe4 arch/arm/imx-common/built-in.o
                0x0000000017801e60                setup_i2c
 .text.board_video_skip
                0x0000000017801f44      0x170 arch/arm/imx-common/built-in.o
                0x0000000017801f44                board_video_skip
 .text.detect_hdmi
                0x00000000178020b4       0x18 arch/arm/imx-common/built-in.o
                0x00000000178020b4                detect_hdmi
 .text.create_usage
                0x00000000178020cc       0xa0 arch/arm/imx-common/built-in.o
 .text.do_boot_mode
                0x000000001780216c       0xcc arch/arm/imx-common/built-in.o
 .text.add_board_boot_modes
                0x0000000017802238       0x60 arch/arm/imx-common/built-in.o
                0x0000000017802238                add_board_boot_modes
 .text          0x0000000017802298       0xa8 arch/arm/lib/built-in.o
                0x0000000017802298                _main
 .text.relocate_vectors
                0x0000000017802340       0x70 arch/arm/lib/built-in.o
                0x0000000017802340                relocate_vectors
                0x000000001780234c                relocate_code
 .text.arch_fixup_fdt
                0x00000000178023b0       0x38 arch/arm/lib/built-in.o
                0x00000000178023b0                arch_fixup_fdt
 .text.boot_jump_linux
                0x00000000178023e8       0xb8 arch/arm/lib/built-in.o
 .text.arch_lmb_reserve
                0x00000000178024a0       0x24 arch/arm/lib/built-in.o
                0x00000000178024a0                arch_lmb_reserve
 .text.setup_board_tags
                0x00000000178024c4        0x4 arch/arm/lib/built-in.o
                0x00000000178024c4                setup_board_tags
 .text.boot_prep_linux
                0x00000000178024c8      0x194 arch/arm/lib/built-in.o
 .text.do_bootm_linux
                0x000000001780265c       0x5c arch/arm/lib/built-in.o
                0x000000001780265c                do_bootm_linux
 .text.bootz_setup
                0x00000000178026b8       0x60 arch/arm/lib/built-in.o
                0x00000000178026b8                bootz_setup
 .text.boot_prep_vxworks
                0x0000000017802718       0x50 arch/arm/lib/built-in.o
                0x0000000017802718                boot_prep_vxworks
 .text.boot_jump_vxworks
                0x0000000017802768        0xc arch/arm/lib/built-in.o
                0x0000000017802768                boot_jump_vxworks
 .text.pl310_background_op_all_ways
                0x0000000017802774       0x38 arch/arm/lib/built-in.o
 .text.v7_outer_cache_inval_all
                0x00000000178027ac        0xc arch/arm/lib/built-in.o
                0x00000000178027ac                v7_outer_cache_inval_all
 .text.v7_outer_cache_flush_all
                0x00000000178027b8        0xc arch/arm/lib/built-in.o
                0x00000000178027b8                v7_outer_cache_flush_all
 .text.v7_outer_cache_flush_range
                0x00000000178027c4       0x30 arch/arm/lib/built-in.o
                0x00000000178027c4                v7_outer_cache_flush_range
 .text.v7_outer_cache_inval_range
                0x00000000178027f4       0x80 arch/arm/lib/built-in.o
                0x00000000178027f4                v7_outer_cache_inval_range
 .text.arch_reserve_stacks
                0x0000000017802874       0x1c arch/arm/lib/built-in.o
                0x0000000017802874                arch_reserve_stacks
 .text.interrupt_init
                0x0000000017802890       0x1c arch/arm/lib/built-in.o
                0x0000000017802890                interrupt_init
 .text.enable_interrupts
                0x00000000178028ac        0x4 arch/arm/lib/built-in.o
                0x00000000178028ac                enable_interrupts
 .text.disable_interrupts
                0x00000000178028b0        0x8 arch/arm/lib/built-in.o
                0x00000000178028b0                disable_interrupts
 .text.bad_mode
                0x00000000178028b8       0x10 arch/arm/lib/built-in.o
                0x00000000178028b8                bad_mode
 .text.show_regs
                0x00000000178028c8      0x174 arch/arm/lib/built-in.o
                0x00000000178028c8                show_regs
 .text.do_undefined_instruction
                0x0000000017802a3c       0x20 arch/arm/lib/built-in.o
                0x0000000017802a3c                do_undefined_instruction
 .text.do_software_interrupt
                0x0000000017802a5c       0x20 arch/arm/lib/built-in.o
                0x0000000017802a5c                do_software_interrupt
 .text.do_prefetch_abort
                0x0000000017802a7c       0x20 arch/arm/lib/built-in.o
                0x0000000017802a7c                do_prefetch_abort
 .text.do_data_abort
                0x0000000017802a9c       0x20 arch/arm/lib/built-in.o
                0x0000000017802a9c                do_data_abort
 .text.do_not_used
                0x0000000017802abc       0x20 arch/arm/lib/built-in.o
                0x0000000017802abc                do_not_used
 .text.do_fiq   0x0000000017802adc       0x20 arch/arm/lib/built-in.o
                0x0000000017802adc                do_fiq
 .text.do_irq   0x0000000017802afc       0x20 arch/arm/lib/built-in.o
                0x0000000017802afc                do_irq
 .text.reset_misc
                0x0000000017802b1c        0x4 arch/arm/lib/built-in.o
                0x0000000017802b1c                reset_misc
 .text.do_reset
                0x0000000017802b20       0x30 arch/arm/lib/built-in.o
                0x0000000017802b20                do_reset
 .text.cp_delay
                0x0000000017802b50       0x30 arch/arm/lib/built-in.o
 .text.arm_init_domains
                0x0000000017802b80        0x4 arch/arm/lib/built-in.o
                0x0000000017802b80                arm_init_domains
 .text.set_section_dcache
                0x0000000017802b84       0x14 arch/arm/lib/built-in.o
                0x0000000017802b84                set_section_dcache
 .text.mmu_set_region_dcache_behaviour
                0x0000000017802b98       0x50 arch/arm/lib/built-in.o
                0x0000000017802b98                mmu_set_region_dcache_behaviour
 .text.dram_bank_mmu_setup
                0x0000000017802be8       0x44 arch/arm/lib/built-in.o
                0x0000000017802be8                dram_bank_mmu_setup
 .text.icache_enable
                0x0000000017802c2c       0x18 arch/arm/lib/built-in.o
                0x0000000017802c2c                icache_enable
 .text.icache_disable
                0x0000000017802c44       0x1c arch/arm/lib/built-in.o
                0x0000000017802c44                icache_disable
 .text.icache_status
                0x0000000017802c60        0xc arch/arm/lib/built-in.o
                0x0000000017802c60                icache_status
 .text.dcache_enable
                0x0000000017802c6c       0x6c arch/arm/lib/built-in.o
                0x0000000017802c6c                dcache_enable
 .text.dcache_disable
                0x0000000017802cd8       0x2c arch/arm/lib/built-in.o
                0x0000000017802cd8                dcache_disable
 .text.dcache_status
                0x0000000017802d04        0xc arch/arm/lib/built-in.o
                0x0000000017802d04                dcache_status
 .text.enable_lvds
                0x0000000017802d10       0x14 board/freescale/mx6sabresd/built-in.o
 .text.enable_rgb
                0x0000000017802d24       0x24 board/freescale/mx6sabresd/built-in.o
 .text.do_enable_hdmi
                0x0000000017802d48       0x18 board/freescale/mx6sabresd/built-in.o
 .text.dram_init
                0x0000000017802d60       0x18 board/freescale/mx6sabresd/built-in.o
                0x0000000017802d60                dram_init
 .text.board_mmc_getcd
                0x0000000017802d78       0x4c board/freescale/mx6sabresd/built-in.o
                0x0000000017802d78                board_mmc_getcd
 .text.board_mmc_init
                0x0000000017802dc4       0x7c board/freescale/mx6sabresd/built-in.o
                0x0000000017802dc4                board_mmc_init
 .text.mx6_rgmii_rework
                0x0000000017802e40       0xb4 board/freescale/mx6sabresd/built-in.o
                0x0000000017802e40                mx6_rgmii_rework
 .text.board_phy_config
                0x0000000017802ef4       0x2c board/freescale/mx6sabresd/built-in.o
                0x0000000017802ef4                board_phy_config
 .text.overwrite_console
                0x0000000017802f20        0x8 board/freescale/mx6sabresd/built-in.o
                0x0000000017802f20                overwrite_console
 .text.board_eth_init
                0x0000000017802f28       0x54 board/freescale/mx6sabresd/built-in.o
                0x0000000017802f28                board_eth_init
 .text.board_ehci_hcd_init
                0x0000000017802f7c       0x28 board/freescale/mx6sabresd/built-in.o
                0x0000000017802f7c                board_ehci_hcd_init
 .text.board_ehci_power
                0x0000000017802fa4       0x4c board/freescale/mx6sabresd/built-in.o
                0x0000000017802fa4                board_ehci_power
 .text.board_early_init_f
                0x0000000017802ff0       0x8c board/freescale/mx6sabresd/built-in.o
                0x0000000017802ff0                board_early_init_f
 .text.board_init
                0x000000001780307c       0x7c board/freescale/mx6sabresd/built-in.o
                0x000000001780307c                board_init
 .text.power_init_board
                0x00000000178030f8        0x8 board/freescale/mx6sabresd/built-in.o
                0x00000000178030f8                power_init_board
 .text.board_spi_cs_gpio
                0x0000000017803100       0x10 board/freescale/mx6sabresd/built-in.o
                0x0000000017803100                board_spi_cs_gpio
 .text.board_late_init
                0x0000000017803110       0x2c board/freescale/mx6sabresd/built-in.o
                0x0000000017803110                board_late_init
 .text.checkboard
                0x000000001780313c       0x18 board/freescale/mx6sabresd/built-in.o
                0x000000001780313c                checkboard
 .text.show_boot_progress
                0x0000000017803154        0x4 common/built-in.o
                0x0000000017803154                show_boot_progress
 .text.main_loop
                0x0000000017803158       0x20 common/built-in.o
                0x0000000017803158                main_loop
 .text.dummy    0x0000000017803178        0x4 common/built-in.o
 .text.get_version
                0x000000001780317c        0x8 common/built-in.o
                0x000000001780317c                get_version
 .text.jumptable_init
                0x0000000017803184      0x1c0 common/built-in.o
                0x0000000017803184                jumptable_init
 .text.hash_command
                0x0000000017803344       0xb4 common/built-in.o
                0x0000000017803344                hash_command
 .text.b_reset  0x00000000178033f8       0x1c common/built-in.o
 .text.static_get
                0x0000000017803414       0x1c common/built-in.o
 .text.static_peek
                0x0000000017803430        0xc common/built-in.o
 .text.file_peek
                0x000000001780343c        0xc common/built-in.o
 .text.mapset   0x0000000017803448       0x20 common/built-in.o
 .text.syntax_err
                0x0000000017803468        0xc common/built-in.o
 .text.free_pipe_list
                0x0000000017803474       0xf0 common/built-in.o
 .text.xmalloc  0x0000000017803564       0x20 common/built-in.o
 .text.new_pipe
                0x0000000017803584       0x28 common/built-in.o
 .text.xrealloc
                0x00000000178035ac       0x20 common/built-in.o
 .text.done_command
                0x00000000178035cc       0x88 common/built-in.o
 .text.done_pipe
                0x0000000017803654       0x48 common/built-in.o
 .text.done_word
                0x000000001780369c      0x2d8 common/built-in.o
 .text.do_showvar
                0x0000000017803974       0xfc common/built-in.o
 .text.is_assignment
                0x0000000017803a70       0x5c common/built-in.o
 .text.file_get
                0x0000000017803acc      0x1ec common/built-in.o
 .text.b_addchr
                0x0000000017803cb8       0x78 common/built-in.o
 .text.b_addqchr
                0x0000000017803d30       0x50 common/built-in.o
 .text.get_local_var
                0x0000000017803d80       0xa0 common/built-in.o
                0x0000000017803d80                get_local_var
 .text.set_local_var
                0x0000000017803e20      0x1ac common/built-in.o
                0x0000000017803e20                set_local_var
 .text.insert_var_value_sub
                0x0000000017803fcc      0x2c0 common/built-in.o
 .text.parse_string_outer
                0x000000001780428c       0xe4 common/built-in.o
                0x000000001780428c                parse_string_outer
 .text.run_list_real
                0x0000000017804370      0x7e4 common/built-in.o
 .text.parse_stream_outer
                0x0000000017804b54      0x6d4 common/built-in.o
 .text.parse_file_outer
                0x0000000017805228       0x44 common/built-in.o
                0x0000000017805228                parse_file_outer
 .text.u_boot_hush_start
                0x000000001780526c       0x54 common/built-in.o
                0x000000001780526c                u_boot_hush_start
 .text.bootdelay_process
                0x00000000178052c0       0x50 common/built-in.o
                0x00000000178052c0                bootdelay_process
 .text.autoboot_command
                0x0000000017805310       0xd0 common/built-in.o
                0x0000000017805310                autoboot_command
 .text.display_text_info
                0x00000000178053e0        0x8 common/built-in.o
 .text.setup_mon_len
                0x00000000178053e8       0x20 common/built-in.o
 .text.setup_fdt
                0x0000000017805408        0x8 common/built-in.o
 .text.reserve_round_4k
                0x0000000017805410       0x18 common/built-in.o
 .text.reserve_mmu
                0x0000000017805428       0x38 common/built-in.o
 .text.reserve_trace
                0x0000000017805460        0x8 common/built-in.o
 .text.reserve_uboot
                0x0000000017805468       0x30 common/built-in.o
 .text.reserve_malloc
                0x0000000017805498       0x18 common/built-in.o
 .text.setup_machine
                0x00000000178054b0       0x14 common/built-in.o
 .text.reserve_global_data
                0x00000000178054c4       0x1c common/built-in.o
 .text.reserve_fdt
                0x00000000178054e0       0x4c common/built-in.o
 .text.display_new_sp
                0x000000001780552c        0x8 common/built-in.o
 .text.initf_malloc
                0x0000000017805534       0x1c common/built-in.o
 .text.reserve_arch
                0x0000000017805550        0x8 common/built-in.o
                0x0000000017805550                reserve_arch
 .text.setup_reloc
                0x0000000017805558       0x28 common/built-in.o
 .text.reloc_fdt
                0x0000000017805580       0x30 common/built-in.o
 .text.announce_dram_init
                0x00000000178055b0       0x18 common/built-in.o
 .text.init_func_i2c
                0x00000000178055c8       0x28 common/built-in.o
 .text.init_baud_rate
                0x00000000178055f0       0x2c common/built-in.o
 .text.initf_dm
                0x000000001780561c        0x8 common/built-in.o
 .text.mark_bootstage
                0x0000000017805624       0x14 common/built-in.o
 .text.reserve_board
                0x0000000017805638       0x38 common/built-in.o
 .text.coloured_LED_init
                0x0000000017805670        0x4 common/built-in.o
                0x0000000017805670                coloured_LED_init
 .text.red_led_on
                0x0000000017805674        0x4 common/built-in.o
                0x0000000017805674                red_led_on
 .text.board_add_ram_info
                0x0000000017805678        0x4 common/built-in.o
                0x0000000017805678                board_add_ram_info
 .text.show_dram_config
                0x000000001780567c       0x38 common/built-in.o
 .text.dram_init_banksize
                0x00000000178056b4       0x20 common/built-in.o
                0x00000000178056b4                dram_init_banksize
 .text.setup_dram_config
                0x00000000178056d4       0x10 common/built-in.o
 .text.board_get_usable_ram_top
                0x00000000178056e4       0x14 common/built-in.o
                0x00000000178056e4                board_get_usable_ram_top
 .text.setup_dest_addr
                0x00000000178056f8       0x3c common/built-in.o
 .text.reserve_stacks
                0x0000000017805734       0x1c common/built-in.o
 .text.board_init_f
                0x0000000017805750       0x28 common/built-in.o
                0x0000000017805750                board_init_f
 .text.bootstage_relocate
                0x0000000017805778        0x8 common/built-in.o
 .text.initr_trace
                0x0000000017805780        0x8 common/built-in.o
 .text.initr_reloc_global_data
                0x0000000017805788       0x28 common/built-in.o
 .text.initr_barrier
                0x00000000178057b0        0x8 common/built-in.o
 .text.initr_announce
                0x00000000178057b8        0x8 common/built-in.o
 .text.run_main_loop
                0x00000000178057c0        0xc common/built-in.o
 .text.initr_net
                0x00000000178057cc       0x20 common/built-in.o
 .text.initr_ethaddr
                0x00000000178057ec       0x20 common/built-in.o
 .text.initr_enable_interrupts
                0x000000001780580c       0x10 common/built-in.o
 .text.initr_jumptable
                0x000000001780581c       0x10 common/built-in.o
 .text.initr_pci
                0x000000001780582c       0x10 common/built-in.o
 .text.initr_env
                0x000000001780583c       0x30 common/built-in.o
 .text.initr_mmc
                0x000000001780586c       0x20 common/built-in.o
 .text.initr_serial
                0x000000001780588c       0x10 common/built-in.o
 .text.initr_dm
                0x000000001780589c       0x14 common/built-in.o
 .text.initr_malloc
                0x00000000178058b0       0x24 common/built-in.o
 .text.initr_caches
                0x00000000178058d4       0x10 common/built-in.o
 .text.initr_reloc
                0x00000000178058e4       0x24 common/built-in.o
 .text.cpu_secondary_init_r
                0x0000000017805908        0x4 common/built-in.o
                0x0000000017805908                cpu_secondary_init_r
 .text.initr_secondary_cpu
                0x000000001780590c       0x10 common/built-in.o
 .text.board_init_r
                0x000000001780591c       0x14 common/built-in.o
                0x000000001780591c                board_init_r
 .text.show_board_info
                0x0000000017805930        0x4 common/built-in.o
                0x0000000017805930                show_board_info
 .text.do_go_exec
                0x0000000017805934       0x10 common/built-in.o
                0x0000000017805934                do_go_exec
 .text.do_go    0x0000000017805944       0x6c common/built-in.o
 .text.do_bootm
                0x00000000178059b0      0x118 common/built-in.o
                0x00000000178059b0                do_bootm
 .text.do_bootd
                0x0000000017805ac8       0x20 common/built-in.o
                0x0000000017805ac8                do_bootd
 .text.image_info
                0x0000000017805ae8       0xcc common/built-in.o
 .text.do_iminfo
                0x0000000017805bb4       0x60 common/built-in.o
 .text.bootm_maybe_autostart
                0x0000000017805c14       0x78 common/built-in.o
                0x0000000017805c14                bootm_maybe_autostart
 .text.do_bootz
                0x0000000017805c8c       0xf8 common/built-in.o
                0x0000000017805c8c                do_bootz
 .text.bootm_find_ramdisk_fdt
                0x0000000017805d84       0xa8 common/built-in.o
                0x0000000017805d84                bootm_find_ramdisk_fdt
 .text.bootm_decomp_image
                0x0000000017805e2c      0x150 common/built-in.o
                0x0000000017805e2c                bootm_decomp_image
 .text.bootm_disable_interrupts
                0x0000000017805f7c       0x18 common/built-in.o
                0x0000000017805f7c                bootm_disable_interrupts
 .text.do_bootm_states
                0x0000000017805f94      0x74c common/built-in.o
                0x0000000017805f94                do_bootm_states
 .text.copy_args
                0x00000000178066e0       0x50 common/built-in.o
 .text.do_bootm_rtems
                0x0000000017806730       0x40 common/built-in.o
 .text.do_bootm_plan9
                0x0000000017806770       0xa4 common/built-in.o
 .text.do_bootm_standalone
                0x0000000017806814       0x64 common/built-in.o
 .text.do_bootm_netbsd
                0x0000000017806878       0xf8 common/built-in.o
 .text.do_bootvx_fdt
                0x0000000017806970      0x10c common/built-in.o
                0x0000000017806970                do_bootvx_fdt
 .text.do_bootm_vxworks
                0x0000000017806a7c       0x24 common/built-in.o
 .text.boot_selected_os
                0x0000000017806aa0       0x58 common/built-in.o
                0x0000000017806aa0                boot_selected_os
 .text.bootm_os_get_boot_func
                0x0000000017806af8       0x10 common/built-in.o
                0x0000000017806af8                bootm_os_get_boot_func
 .text.do_help  0x0000000017806b08       0x48 common/built-in.o
 .text.do_version
                0x0000000017806b50       0x38 common/built-in.o
 .text.env_attr_walk
                0x0000000017806b88      0x114 common/built-in.o
                0x0000000017806b88                env_attr_walk
 .text.env_attr_lookup
                0x0000000017806c9c      0x18c common/built-in.o
                0x0000000017806c9c                env_attr_lookup
 .text.clear_callback
                0x0000000017806e28       0x10 common/built-in.o
 .text.find_env_callback
                0x0000000017806e38       0x68 common/built-in.o
 .text.on_callbacks
                0x0000000017806ea0       0x48 common/built-in.o
 .text.set_callback
                0x0000000017806ee8       0x94 common/built-in.o
 .text.env_callback_init
                0x0000000017806f7c       0xc4 common/built-in.o
                0x0000000017806f7c                env_callback_init
 .text.skip_num
                0x0000000017807040       0x70 common/built-in.o
 .text.clear_flags
                0x00000000178070b0       0x10 common/built-in.o
 .text.on_flags
                0x00000000178070c0       0x48 common/built-in.o
 .text.env_flags_parse_vartype
                0x0000000017807108       0x50 common/built-in.o
                0x0000000017807108                env_flags_parse_vartype
 .text.env_flags_parse_varaccess
                0x0000000017807158       0x58 common/built-in.o
                0x0000000017807158                env_flags_parse_varaccess
 .text.set_flags
                0x00000000178071b0       0xac common/built-in.o
 .text.env_flags_init
                0x000000001780725c       0xd8 common/built-in.o
                0x000000001780725c                env_flags_init
 .text.env_flags_validate
                0x0000000017807334      0x324 common/built-in.o
                0x0000000017807334                env_flags_validate
 .text.init_mmc_for_env
                0x0000000017807658       0x34 common/built-in.o
 .text.mmc_get_env_addr
                0x000000001780768c       0x10 common/built-in.o
                0x000000001780768c                mmc_get_env_addr
 .text.env_init
                0x000000001780769c       0x1c common/built-in.o
                0x000000001780769c                env_init
 .text.saveenv  0x00000000178076b8       0xf4 common/built-in.o
                0x00000000178076b8                saveenv
 .text.env_relocate_spec
                0x00000000178077ac       0xbc common/built-in.o
                0x00000000178077ac                env_relocate_spec
 .text.source   0x0000000017807868       0xd8 common/built-in.o
                0x0000000017807868                source
 .text.do_source
                0x0000000017807940       0x44 common/built-in.o
 .text.print_num
                0x0000000017807984       0x18 common/built-in.o
 .text.do_bdinfo
                0x000000001780799c      0x18c common/built-in.o
 .text.parse_argv
                0x0000000017807b28       0x64 common/built-in.o
 .text.do_icache
                0x0000000017807b8c       0x88 common/built-in.o
 .text.do_dcache
                0x0000000017807c14       0x88 common/built-in.o
 .text.do_coninfo
                0x0000000017807c9c       0xbc common/built-in.o
 .text.do_echo  0x0000000017807d58       0xb0 common/built-in.o
 .text.do_exit  0x0000000017807e08       0x30 common/built-in.o
 .text.do_ext4_size
                0x0000000017807e38       0x18 common/built-in.o
                0x0000000017807e38                do_ext4_size
 .text.do_ext4_load
                0x0000000017807e50       0x18 common/built-in.o
                0x0000000017807e50                do_ext4_load
 .text.do_ext4_ls
                0x0000000017807e68       0x18 common/built-in.o
                0x0000000017807e68                do_ext4_ls
 .text.do_ext4_write
                0x0000000017807e80       0x18 common/built-in.o
                0x0000000017807e80                do_ext4_write
 .text.do_ext2load
                0x0000000017807e98       0x18 common/built-in.o
                0x0000000017807e98                do_ext2load
 .text.do_ext2ls
                0x0000000017807eb0       0x18 common/built-in.o
 .text.do_fat_size
                0x0000000017807ec8       0x18 common/built-in.o
                0x0000000017807ec8                do_fat_size
 .text.do_fat_fsload
                0x0000000017807ee0       0x18 common/built-in.o
                0x0000000017807ee0                do_fat_fsload
 .text.do_fat_ls
                0x0000000017807ef8       0x18 common/built-in.o
 .text.do_fat_fsinfo
                0x0000000017807f10       0x90 common/built-in.o
 .text.fdt_valid
                0x0000000017807fa0       0xbc common/built-in.o
 .text.is_printable_string
                0x000000001780805c       0x98 common/built-in.o
 .text.print_data
                0x00000000178080f4      0x174 common/built-in.o
 .text.set_working_fdt_addr
                0x0000000017808268       0x1c common/built-in.o
                0x0000000017808268                set_working_fdt_addr
 .text.do_fdt   0x0000000017808284      0xe90 common/built-in.o
 .text.fdt_find_and_setprop
                0x0000000017809114       0x70 common/built-in.o
                0x0000000017809114                fdt_find_and_setprop
 .text.fdt_find_or_add_subnode
                0x0000000017809184       0x68 common/built-in.o
                0x0000000017809184                fdt_find_or_add_subnode
 .text.fdt_initrd
                0x00000000178091ec      0x1d0 common/built-in.o
                0x00000000178091ec                fdt_initrd
 .text.fdt_chosen
                0x00000000178093bc       0xa8 common/built-in.o
                0x00000000178093bc                fdt_chosen
 .text.do_fixup_by_path
                0x0000000017809464       0x54 common/built-in.o
                0x0000000017809464                do_fixup_by_path
 .text.fdt_fixup_memory_banks
                0x00000000178094b8      0x1a4 common/built-in.o
                0x00000000178094b8                fdt_fixup_memory_banks
 .text.fdt_fixup_memory
                0x000000001780965c       0x20 common/built-in.o
                0x000000001780965c                fdt_fixup_memory
 .text.fdt_fixup_ethernet
                0x000000001780967c      0x158 common/built-in.o
                0x000000001780967c                fdt_fixup_ethernet
 .text.fdt_shrink_to_minimum
                0x00000000178097d4       0xcc common/built-in.o
                0x00000000178097d4                fdt_shrink_to_minimum
 .text.do_flinfo
                0x00000000178098a0        0x8 common/built-in.o
 .text.do_flerase
                0x00000000178098a8        0x8 common/built-in.o
 .text.do_protect
                0x00000000178098b0       0x10 common/built-in.o
 .text.strtou32
                0x00000000178098c0       0x48 common/built-in.o
 .text.do_fuse  0x0000000017809908      0x360 common/built-in.o
 .text.do_i2c   0x0000000017809c68       0x64 common/built-in.o
 .text.do_i2c_reset
                0x0000000017809ccc       0x30 common/built-in.o
 .text.do_i2c_probe
                0x0000000017809cfc       0x9c common/built-in.o
 .text.do_i2c_bus_num
                0x0000000017809d98       0xb8 common/built-in.o
 .text.do_i2c_bus_speed
                0x0000000017809e50       0x74 common/built-in.o
 .text.do_i2c_show_bus
                0x0000000017809ec4       0xd8 common/built-in.o
 .text.get_alen.constprop.5
                0x0000000017809f9c       0x3c common/built-in.o
 .text.do_i2c_crc
                0x0000000017809fd8      0x124 common/built-in.o
 .text.do_i2c_read
                0x000000001780a0fc       0xbc common/built-in.o
 .text.do_i2c_md
                0x000000001780a1b8      0x1e8 common/built-in.o
 .text.do_i2c_mw
                0x000000001780a3a0      0x100 common/built-in.o
 .text.do_i2c_write
                0x000000001780a4a0      0x14c common/built-in.o
 .text.mod_i2c_mem.isra.4
                0x000000001780a5ec      0x208 common/built-in.o
 .text.do_i2c_nm
                0x000000001780a7f4        0x8 common/built-in.o
 .text.do_i2c_mm
                0x000000001780a7fc        0x8 common/built-in.o
 .text.do_i2c_loop
                0x000000001780a804       0xe4 common/built-in.o
 .text.i2c_init_board
                0x000000001780a8e8        0x4 common/built-in.o
                0x000000001780a8e8                i2c_init_board
 .text.evalexp  0x000000001780a8ec       0x74 common/built-in.o
 .text.evalstr  0x000000001780a960       0x6c common/built-in.o
 .text.binary_test
                0x000000001780a9cc      0x1b0 common/built-in.o
 .text.do_itest
                0x000000001780ab7c       0x98 common/built-in.o
 .text.bin_data_init
                0x000000001780ac14       0x2c common/built-in.o
 .text.k_data_save
                0x000000001780ac40       0x4c common/built-in.o
 .text.k_data_restore
                0x000000001780ac8c       0x4c common/built-in.o
 .text.getcxmodem
                0x000000001780acd8       0x20 common/built-in.o
 .text.load_serial_ymodem
                0x000000001780acf8       0xcc common/built-in.o
 .text.bin_data_char
                0x000000001780adc4       0x2c common/built-in.o
 .text.chk1.constprop.1
                0x000000001780adf0       0x2c common/built-in.o
 .text.s1_sendpacket.constprop.2
                0x000000001780ae1c       0x50 common/built-in.o
 .text.load_serial
                0x000000001780ae6c      0x1e0 common/built-in.o
 .text.do_load_serial
                0x000000001780b04c       0xdc common/built-in.o
 .text.do_load_serial_bin
                0x000000001780b128      0x7b0 common/built-in.o
 .text.do_mem_mw
                0x000000001780b8d8       0xc0 common/built-in.o
 .text.do_mem_loop
                0x000000001780b998       0xec common/built-in.o
 .text.do_mem_md
                0x000000001780ba84       0xec common/built-in.o
 .text.do_mem_cmp
                0x000000001780bb70      0x16c common/built-in.o
 .text.do_mem_base
                0x000000001780bcdc       0x40 common/built-in.o
 .text.do_mem_cp
                0x000000001780bd1c       0xd8 common/built-in.o
 .text.do_mem_crc
                0x000000001780bdf4       0x48 common/built-in.o
 .text.mod_mem.isra.2
                0x000000001780be3c      0x164 common/built-in.o
 .text.do_mem_mm
                0x000000001780bfa0        0x8 common/built-in.o
 .text.do_mem_nm
                0x000000001780bfa8        0x8 common/built-in.o
 .text.miiphy_get_dev_by_name
                0x000000001780bfb0       0x60 common/built-in.o
                0x000000001780bfb0                miiphy_get_dev_by_name
 .text.miiphy_init
                0x000000001780c010       0x24 common/built-in.o
                0x000000001780c010                miiphy_init
 .text.mdio_alloc
                0x000000001780c034       0x30 common/built-in.o
                0x000000001780c034                mdio_alloc
 .text.mdio_register
                0x000000001780c064       0xa0 common/built-in.o
                0x000000001780c064                mdio_register
 .text.mdio_list_devices
                0x000000001780c104       0x98 common/built-in.o
                0x000000001780c104                mdio_list_devices
 .text.miiphy_set_current_dev
                0x000000001780c19c       0x40 common/built-in.o
                0x000000001780c19c                miiphy_set_current_dev
 .text.miiphy_get_active_dev
                0x000000001780c1dc       0x54 common/built-in.o
 .text.mdio_get_current_dev
                0x000000001780c230       0x10 common/built-in.o
                0x000000001780c230                mdio_get_current_dev
 .text.mdio_phydev_for_ethname
                0x000000001780c240       0x88 common/built-in.o
                0x000000001780c240                mdio_phydev_for_ethname
 .text.miiphy_get_current_dev
                0x000000001780c2c8       0x18 common/built-in.o
                0x000000001780c2c8                miiphy_get_current_dev
 .text.miiphy_read
                0x000000001780c2e0       0x4c common/built-in.o
                0x000000001780c2e0                miiphy_read
 .text.miiphy_write
                0x000000001780c32c       0x40 common/built-in.o
                0x000000001780c32c                miiphy_write
 .text.miiphy_listdev
                0x000000001780c36c       0x74 common/built-in.o
                0x000000001780c36c                miiphy_listdev
 .text.miiphy_info
                0x000000001780c3e0       0x88 common/built-in.o
                0x000000001780c3e0                miiphy_info
 .text.miiphy_speed
                0x000000001780c468       0x94 common/built-in.o
                0x000000001780c468                miiphy_speed
 .text.miiphy_duplex
                0x000000001780c4fc       0x94 common/built-in.o
                0x000000001780c4fc                miiphy_duplex
 .text.miiphy_is_1000base_x
                0x000000001780c590        0x8 common/built-in.o
                0x000000001780c590                miiphy_is_1000base_x
 .text.extract_range
                0x000000001780c598       0xe4 common/built-in.o
 .text.do_mii   0x000000001780c67c      0x7a4 common/built-in.o
 .text.do_mdio  0x000000001780ce20      0x4b8 common/built-in.o
 .text.do_sleep
                0x000000001780d2d8       0x70 common/built-in.o
 .text.do_mmcops
                0x000000001780d348       0xb4 common/built-in.o
 .text.init_mmc_device
                0x000000001780d3fc       0x54 common/built-in.o
 .text.do_mmc_rescan
                0x000000001780d450       0x24 common/built-in.o
 .text.do_mmc_rst_func
                0x000000001780d474       0xa0 common/built-in.o
 .text.do_mmc_partconf
                0x000000001780d514       0xb4 common/built-in.o
 .text.do_mmc_boot_resize
                0x000000001780d5c8       0xcc common/built-in.o
 .text.do_mmc_bootbus
                0x000000001780d694       0xb4 common/built-in.o
 .text.do_mmc_hwpartition
                0x000000001780d748      0x51c common/built-in.o
 .text.do_mmc_list
                0x000000001780dc64       0x14 common/built-in.o
 .text.do_mmc_dev
                0x000000001780dc78      0x134 common/built-in.o
 .text.do_mmc_part
                0x000000001780ddac       0x5c common/built-in.o
 .text.do_mmc_erase
                0x000000001780de08       0xe8 common/built-in.o
 .text.do_mmc_write
                0x000000001780def0      0x100 common/built-in.o
 .text.do_mmc_read
                0x000000001780dff0       0xec common/built-in.o
 .text.do_mmcinfo
                0x000000001780e0dc      0x370 common/built-in.o
 .text.do_mmc_setdsr
                0x000000001780e44c       0xb0 common/built-in.o
 .text.cpu_cmd  0x000000001780e4fc      0x110 common/built-in.o
 .text.netboot_common
                0x000000001780e60c      0x294 common/built-in.o
 .text.do_bootp
                0x000000001780e8a0        0xc common/built-in.o
 .text.do_dhcp  0x000000001780e8ac        0xc common/built-in.o
 .text.do_nfs   0x000000001780e8b8        0xc common/built-in.o
 .text.do_tftpb
                0x000000001780e8c4       0x40 common/built-in.o
                0x000000001780e8c4                do_tftpb
 .text.do_ping  0x000000001780e904       0x7c common/built-in.o
 .text.pci_cfg_write
                0x000000001780e980       0x3c common/built-in.o
 .text.pci_cfg_modify.isra.0
                0x000000001780e9bc      0x128 common/built-in.o
 .text.pci_header_show_brief
                0x000000001780eae4       0x80 common/built-in.o
                0x000000001780eae4                pci_header_show_brief
 .text.pci_header_show
                0x000000001780eb64      0x8f0 common/built-in.o
                0x000000001780eb64                pci_header_show
 .text.pciinfo  0x000000001780f454      0x15c common/built-in.o
                0x000000001780f454                pciinfo
 .text.do_pci   0x000000001780f5b0      0x3c0 common/built-in.o
 .text.bytes_per_second
                0x000000001780f970       0x50 common/built-in.o
 .text.do_spi_flash
                0x000000001780f9c0      0x748 common/built-in.o
 .text.get_arg  0x0000000017810108       0x58 common/built-in.o
 .text.do_setexpr
                0x0000000017810160      0x140 common/built-in.o
 .text.do_false
                0x00000000178102a0        0x8 common/built-in.o
 .text.do_true  0x00000000178102a8        0x8 common/built-in.o
 .text.do_test  0x00000000178102b0      0x33c common/built-in.o
 .text.usb_get_class_desc
                0x00000000178105ec       0xbc common/built-in.o
 .text.usb_display_class_sub
                0x00000000178106a8      0x170 common/built-in.o
 .text.usb_find_device
                0x0000000017810818       0x3c common/built-in.o
 .text.usb_show_tree_graph
                0x0000000017810854      0x21c common/built-in.o
 .text.usb_display_string
                0x0000000017810a70       0x44 common/built-in.o
 .text.usb_display_config
                0x0000000017810ab4      0x20c common/built-in.o
 .text.do_usbboot
                0x0000000017810cc0        0xc common/built-in.o
 .text.do_usb_start
                0x0000000017810ccc       0x44 common/built-in.o
 .text.usb_display_desc.part.3
                0x0000000017810d10      0x12c common/built-in.o
 .text.do_usb   0x0000000017810e3c      0x780 common/built-in.o
 .text.usb_set_maxpacket_ep
                0x00000000178115bc       0x70 common/built-in.o
 .text.usb_stop
                0x000000001781162c       0x64 common/built-in.o
                0x000000001781162c                usb_stop
 .text.usb_disable_asynch
                0x0000000017811690       0x20 common/built-in.o
                0x0000000017811690                usb_disable_asynch
 .text.usb_control_msg
                0x00000000178116b0       0xc4 common/built-in.o
                0x00000000178116b0                usb_control_msg
 .text.usb_get_descriptor
                0x0000000017811774       0x50 common/built-in.o
 .text.usb_get_string
                0x00000000178117c4       0x6c common/built-in.o
 .text.usb_string_sub
                0x0000000017811830      0x108 common/built-in.o
 .text.usb_bulk_msg
                0x0000000017811938       0x74 common/built-in.o
                0x0000000017811938                usb_bulk_msg
 .text.usb_maxpacket
                0x00000000178119ac       0x1c common/built-in.o
                0x00000000178119ac                usb_maxpacket
 .text.usb_clear_halt
                0x00000000178119c8       0x8c common/built-in.o
                0x00000000178119c8                usb_clear_halt
 .text.usb_get_configuration_no
                0x0000000017811a54       0xbc common/built-in.o
                0x0000000017811a54                usb_get_configuration_no
 .text.usb_set_interface
                0x0000000017811b10       0xa8 common/built-in.o
                0x0000000017811b10                usb_set_interface
 .text.usb_string
                0x0000000017811bb8      0x100 common/built-in.o
                0x0000000017811bb8                usb_string
 .text.usb_get_dev_index
                0x0000000017811cb8       0x24 common/built-in.o
                0x0000000017811cb8                usb_get_dev_index
 .text.usb_alloc_new_device
                0x0000000017811cdc       0x94 common/built-in.o
                0x0000000017811cdc                usb_alloc_new_device
 .text.usb_free_device
                0x0000000017811d70       0x48 common/built-in.o
                0x0000000017811d70                usb_free_device
 .text.usb_alloc_device
                0x0000000017811db8        0x8 common/built-in.o
                0x0000000017811db8                usb_alloc_device
 .text.usb_new_device
                0x0000000017811dc0      0x5c8 common/built-in.o
                0x0000000017811dc0                usb_new_device
 .text.usb_init
                0x0000000017812388      0x12c common/built-in.o
                0x0000000017812388                usb_init
 .text.board_usb_init
                0x00000000178124b4        0x8 common/built-in.o
                0x00000000178124b4                board_usb_init
 .text.usb_set_port_feature
                0x00000000178124bc       0x4c common/built-in.o
 .text.usb_hub_power_on
                0x0000000017812508       0x44 common/built-in.o
 .text.usb_get_port_status
                0x000000001781254c       0x4c common/built-in.o
 .text.usb_clear_port_feature
                0x0000000017812598       0x4c common/built-in.o
 .text.usb_get_hub_descriptor
                0x00000000178125e4       0x50 common/built-in.o
 .text.usb_hub_reset_devices
                0x0000000017812634        0x4 common/built-in.o
                0x0000000017812634                usb_hub_reset_devices
 .text.usb_hub_reset
                0x0000000017812638       0x14 common/built-in.o
                0x0000000017812638                usb_hub_reset
 .text.hub_port_reset
                0x000000001781264c       0x98 common/built-in.o
                0x000000001781264c                hub_port_reset
 .text.usb_hub_port_connect_change
                0x00000000178126e4      0x120 common/built-in.o
                0x00000000178126e4                usb_hub_port_connect_change
 .text.usb_hub_configure
                0x0000000017812804      0x2d8 common/built-in.o
 .text.usb_hub_probe
                0x0000000017812adc       0x58 common/built-in.o
                0x0000000017812adc                usb_hub_probe
 .text.usb_stor_irq
                0x0000000017812b34       0x1c common/built-in.o
 .text.usb_stor_BBB_reset
                0x0000000017812b50       0xd0 common/built-in.o
 .text.usb_stor_CB_reset
                0x0000000017812c20       0xcc common/built-in.o
 .text.usb_stor_BBB_clear_endpt_stall.isra.2
                0x0000000017812cec       0x40 common/built-in.o
 .text.usb_stor_BBB_transport
                0x0000000017812d2c      0x26c common/built-in.o
 .text.usb_stor_CB_comdat
                0x0000000017812f98      0x208 common/built-in.o
 .text.usb_stor_CBI_get_status.isra.4
                0x00000000178131a0       0xc8 common/built-in.o
 .text.usb_stor_CB_transport
                0x0000000017813268      0x228 common/built-in.o
 .text.usb_request_sense.constprop.10
                0x0000000017813490       0x70 common/built-in.o
 .text.usb_stor_write
                0x0000000017813500      0x1cc common/built-in.o
                0x0000000017813500                usb_stor_write
 .text.usb_stor_read
                0x00000000178136cc      0x1cc common/built-in.o
                0x00000000178136cc                usb_stor_read
 .text.usb_stor_get_dev
                0x0000000017813898       0x28 common/built-in.o
                0x0000000017813898                usb_stor_get_dev
 .text.usb_stor_info
                0x00000000178138c0       0x74 common/built-in.o
                0x00000000178138c0                usb_stor_info
 .text.usb_storage_probe
                0x0000000017813934      0x208 common/built-in.o
                0x0000000017813934                usb_storage_probe
 .text.usb_stor_get_info
                0x0000000017813b3c      0x324 common/built-in.o
                0x0000000017813b3c                usb_stor_get_info
 .text.usb_stor_scan
                0x0000000017813e60      0x200 common/built-in.o
                0x0000000017813e60                usb_stor_scan
 .text.ums_read_sector
                0x0000000017814060       0x24 common/built-in.o
 .text.ums_write_sector
                0x0000000017814084       0x24 common/built-in.o
 .text.ums_init
                0x00000000178140a8       0x60 common/built-in.o
                0x00000000178140a8                ums_init
 .text.do_usb_mass_storage
                0x0000000017814108      0x18c common/built-in.o
                0x0000000017814108                do_usb_mass_storage
 .text.do_imgextract
                0x0000000017814294      0x28c common/built-in.o
 .text.splash_screen_prepare
                0x0000000017814520        0x8 common/built-in.o
                0x0000000017814520                splash_screen_prepare
 .text.splash_get_pos
                0x0000000017814528       0x84 common/built-in.o
                0x0000000017814528                splash_get_pos
 .text.do_env_delete
                0x00000000178145ac       0x9c common/built-in.o
 .text.do_env_exists
                0x0000000017814648       0x64 common/built-in.o
 .text.do_env_save
                0x00000000178146ac       0x2c common/built-in.o
 .text.do_env   0x00000000178146d8       0x64 common/built-in.o
 .text.env_print
                0x000000001781473c       0xc0 common/built-in.o
 .text.do_env_print
                0x00000000178147fc       0xc4 common/built-in.o
 .text.do_env_import
                0x00000000178148c0      0x28c common/built-in.o
 .text.do_env_default
                0x0000000017814b4c       0xa8 common/built-in.o
 .text._do_env_set.isra.1
                0x0000000017814bf4      0x1b8 common/built-in.o
 .text.do_env_set
                0x0000000017814dac       0x1c common/built-in.o
 .text.get_env_id
                0x0000000017814dc8       0x10 common/built-in.o
                0x0000000017814dc8                get_env_id
 .text.setenv   0x0000000017814dd8       0x58 common/built-in.o
                0x0000000017814dd8                setenv
 .text.setenv_ulong
                0x0000000017814e30       0x20 common/built-in.o
                0x0000000017814e30                setenv_ulong
 .text.setenv_hex
                0x0000000017814e50       0x34 common/built-in.o
                0x0000000017814e50                setenv_hex
 .text.do_env_export
                0x0000000017814e84      0x260 common/built-in.o
 .text.envmatch
                0x00000000178150e4       0x6c common/built-in.o
                0x00000000178150e4                envmatch
 .text.getenv_f
                0x0000000017815150       0xc0 common/built-in.o
                0x0000000017815150                getenv_f
 .text.getenv   0x0000000017815210       0x78 common/built-in.o
                0x0000000017815210                getenv
 .text.getenv_hex
                0x0000000017815288       0x3c common/built-in.o
                0x0000000017815288                getenv_hex
 .text.getenv_ulong
                0x00000000178152c4       0x30 common/built-in.o
                0x00000000178152c4                getenv_ulong
 .text.do_env_edit
                0x00000000178152f4       0x78 common/built-in.o
 .text.env_get_char_spec
                0x000000001781536c        0xc common/built-in.o
                0x000000001781536c                env_get_char_spec
 .text.env_get_addr
                0x0000000017815378       0x20 common/built-in.o
                0x0000000017815378                env_get_addr
 .text.env_get_char_memory
                0x0000000017815398       0x10 common/built-in.o
                0x0000000017815398                env_get_char_memory
 .text.env_get_char
                0x00000000178153a8       0x30 common/built-in.o
                0x00000000178153a8                env_get_char
 .text.getenv_yesno
                0x00000000178153d8       0x40 common/built-in.o
                0x00000000178153d8                getenv_yesno
 .text.getenv_default
                0x0000000017815418       0x30 common/built-in.o
                0x0000000017815418                getenv_default
 .text.set_default_env
                0x0000000017815448       0xc0 common/built-in.o
                0x0000000017815448                set_default_env
 .text.set_default_vars
                0x0000000017815508       0x3c common/built-in.o
                0x0000000017815508                set_default_vars
 .text.env_import
                0x0000000017815544       0xe0 common/built-in.o
                0x0000000017815544                env_import
 .text.env_export
                0x0000000017815624       0xa0 common/built-in.o
                0x0000000017815624                env_export
 .text.env_relocate
                0x00000000178156c4       0x30 common/built-in.o
                0x00000000178156c4                env_relocate
 .text.env_complete
                0x00000000178156f4       0xdc common/built-in.o
                0x00000000178156f4                env_complete
 .text.console_setfile
                0x00000000178157d0       0xc0 common/built-in.o
 .text.serial_printf
                0x0000000017815890       0x40 common/built-in.o
                0x0000000017815890                serial_printf
 .text.puts     0x00000000178158d0       0x34 common/built-in.o
                0x00000000178158d0                puts
 .text.printf   0x0000000017815904       0x4c common/built-in.o
                0x0000000017815904                printf
 .text.putc     0x0000000017815950       0x34 common/built-in.o
                0x0000000017815950                putc
 .text.fgetc    0x0000000017815984       0x24 common/built-in.o
                0x0000000017815984                fgetc
 .text.getc     0x00000000178159a8       0x24 common/built-in.o
                0x00000000178159a8                getc
 .text.ftstc    0x00000000178159cc       0x24 common/built-in.o
                0x00000000178159cc                ftstc
 .text.tstc     0x00000000178159f0       0x24 common/built-in.o
                0x00000000178159f0                tstc
 .text.vprintf  0x0000000017815a14       0x34 common/built-in.o
                0x0000000017815a14                vprintf
 .text.ctrlc    0x0000000017815a48       0x58 common/built-in.o
                0x0000000017815a48                ctrlc
 .text.confirm_yesno
                0x0000000017815aa0       0xd4 common/built-in.o
                0x0000000017815aa0                confirm_yesno
 .text.had_ctrlc
                0x0000000017815b74       0x10 common/built-in.o
                0x0000000017815b74                had_ctrlc
 .text.clear_ctrlc
                0x0000000017815b84       0x14 common/built-in.o
                0x0000000017815b84                clear_ctrlc
 .text.search_device
                0x0000000017815b98       0x28 common/built-in.o
                0x0000000017815b98                search_device
 .text.console_assign
                0x0000000017815bc0       0x48 common/built-in.o
                0x0000000017815bc0                console_assign
 .text.on_console
                0x0000000017815c08       0xc0 common/built-in.o
 .text.console_init_f
                0x0000000017815cc8       0x10 common/built-in.o
                0x0000000017815cc8                console_init_f
 .text.stdio_print_current_devices
                0x0000000017815cd8       0xb0 common/built-in.o
                0x0000000017815cd8                stdio_print_current_devices
 .text.console_init_r
                0x0000000017815d88      0x194 common/built-in.o
                0x0000000017815d88                console_init_r
 .text.sbrk     0x0000000017815f1c       0x70 common/built-in.o
                0x0000000017815f1c                sbrk
 .text.mem_malloc_init
                0x0000000017815f8c       0x34 common/built-in.o
                0x0000000017815f8c                mem_malloc_init
 .text.malloc_trim
                0x0000000017815fc0       0xcc common/built-in.o
                0x0000000017815fc0                malloc_trim
 .text.free     0x000000001781608c      0x248 common/built-in.o
                0x000000001781608c                free
 .text.malloc   0x00000000178162d4      0x62c common/built-in.o
                0x00000000178162d4                malloc
 .text.calloc   0x0000000017816900      0x148 common/built-in.o
                0x0000000017816900                calloc
 .text.realloc  0x0000000017816a48      0x4d8 common/built-in.o
                0x0000000017816a48                realloc
 .text.memalign
                0x0000000017816f20      0x10c common/built-in.o
                0x0000000017816f20                memalign
 .text.malloc_simple
                0x000000001781702c       0x30 common/built-in.o
                0x000000001781702c                malloc_simple
 .text.on_loadaddr
                0x000000001781705c       0x38 common/built-in.o
 .text.image_check_hcrc
                0x0000000017817094       0x4c common/built-in.o
                0x0000000017817094                image_check_hcrc
 .text.image_check_dcrc
                0x00000000178170e0       0x38 common/built-in.o
                0x00000000178170e0                image_check_dcrc
 .text.image_multi_count
                0x0000000017817118       0x1c common/built-in.o
                0x0000000017817118                image_multi_count
 .text.image_multi_getimg
                0x0000000017817134       0x80 common/built-in.o
                0x0000000017817134                image_multi_getimg
 .text.getenv_bootm_low
                0x00000000178171b4       0x30 common/built-in.o
                0x00000000178171b4                getenv_bootm_low
 .text.getenv_bootm_size
                0x00000000178171e4       0x5c common/built-in.o
                0x00000000178171e4                getenv_bootm_size
 .text.getenv_bootm_mapsize
                0x0000000017817240       0x30 common/built-in.o
                0x0000000017817240                getenv_bootm_mapsize
 .text.memmove_wd
                0x0000000017817270        0xc common/built-in.o
                0x0000000017817270                memmove_wd
 .text.genimg_print_size
                0x000000001781727c       0x30 common/built-in.o
                0x000000001781727c                genimg_print_size
 .text.get_table_entry_name
                0x00000000178172ac       0x2c common/built-in.o
                0x00000000178172ac                get_table_entry_name
 .text.genimg_get_os_name
                0x00000000178172d8       0x18 common/built-in.o
                0x00000000178172d8                genimg_get_os_name
 .text.genimg_get_arch_name
                0x00000000178172f0       0x18 common/built-in.o
                0x00000000178172f0                genimg_get_arch_name
 .text.genimg_get_type_name
                0x0000000017817308       0x18 common/built-in.o
                0x0000000017817308                genimg_get_type_name
 .text.genimg_get_comp_name
                0x0000000017817320       0x18 common/built-in.o
                0x0000000017817320                genimg_get_comp_name
 .text.image_print_contents
                0x0000000017817338      0x174 common/built-in.o
                0x0000000017817338                image_print_contents
 .text.genimg_get_kernel_addr_fit
                0x00000000178174ac       0x24 common/built-in.o
                0x00000000178174ac                genimg_get_kernel_addr_fit
 .text.genimg_get_format
                0x00000000178174d0       0x34 common/built-in.o
                0x00000000178174d0                genimg_get_format
 .text.genimg_get_image
                0x0000000017817504        0x4 common/built-in.o
                0x0000000017817504                genimg_get_image
 .text.genimg_has_config
                0x0000000017817508        0x8 common/built-in.o
                0x0000000017817508                genimg_has_config
 .text.boot_get_ramdisk
                0x0000000017817510      0x238 common/built-in.o
                0x0000000017817510                boot_get_ramdisk
 .text.boot_ramdisk_high
                0x0000000017817748      0x13c common/built-in.o
                0x0000000017817748                boot_ramdisk_high
 .text.boot_get_setup
                0x0000000017817884        0x8 common/built-in.o
                0x0000000017817884                boot_get_setup
 .text.image_setup_linux
                0x000000001781788c       0x8c common/built-in.o
                0x000000001781788c                image_setup_linux
 .text.fdt_error
                0x0000000017817918       0x2c common/built-in.o
 .text.boot_fdt_add_mem_rsv_regions
                0x0000000017817944       0x88 common/built-in.o
                0x0000000017817944                boot_fdt_add_mem_rsv_regions
 .text.boot_relocate_fdt
                0x00000000178179cc      0x194 common/built-in.o
                0x00000000178179cc                boot_relocate_fdt
 .text.boot_get_fdt
                0x0000000017817b60      0x2ac common/built-in.o
                0x0000000017817b60                boot_get_fdt
 .text.ft_verify_fdt
                0x0000000017817e0c        0x8 common/built-in.o
                0x0000000017817e0c                ft_verify_fdt
 .text.image_setup_libfdt
                0x0000000017817e14       0xe8 common/built-in.o
                0x0000000017817e14                image_setup_libfdt
 .text.get_effective_memsize
                0x0000000017817efc        0x8 common/built-in.o
                0x0000000017817efc                get_effective_memsize
 .text.nulldev_putc
                0x0000000017817f04        0x4 common/built-in.o
 .text.nulldev_puts
                0x0000000017817f08        0x4 common/built-in.o
 .text.nulldev_input
                0x0000000017817f0c        0x8 common/built-in.o
 .text.stdio_serial_tstc
                0x0000000017817f14        0x4 common/built-in.o
 .text.stdio_serial_getc
                0x0000000017817f18        0x4 common/built-in.o
 .text.stdio_serial_puts
                0x0000000017817f1c        0x8 common/built-in.o
 .text.stdio_serial_putc
                0x0000000017817f24        0x8 common/built-in.o
 .text.stdio_get_list
                0x0000000017817f2c        0xc common/built-in.o
                0x0000000017817f2c                stdio_get_list
 .text.stdio_get_by_name
                0x0000000017817f38       0x5c common/built-in.o
                0x0000000017817f38                stdio_get_by_name
 .text.stdio_clone
                0x0000000017817f94       0x38 common/built-in.o
                0x0000000017817f94                stdio_clone
 .text.stdio_register_dev
                0x0000000017817fcc       0x50 common/built-in.o
                0x0000000017817fcc                stdio_register_dev
 .text.stdio_register
                0x000000001781801c        0x8 common/built-in.o
                0x000000001781801c                stdio_register
 .text.stdio_init_tables
                0x0000000017818024       0x1c common/built-in.o
                0x0000000017818024                stdio_init_tables
 .text.stdio_add_devices
                0x0000000017818040       0xd4 common/built-in.o
                0x0000000017818040                stdio_add_devices
 .text.run_command
                0x0000000017818114       0x10 common/built-in.o
                0x0000000017818114                run_command
 .text.run_command_list
                0x0000000017818124       0x5c common/built-in.o
                0x0000000017818124                run_command_list
 .text.do_run   0x0000000017818180       0x78 common/built-in.o
                0x0000000017818180                do_run
 .text.cli_loop
                0x00000000178181f8        0xc common/built-in.o
                0x00000000178181f8                cli_loop
 .text.cli_init
                0x0000000017818204        0x4 common/built-in.o
                0x0000000017818204                cli_init
 .text.delete_char.part.0
                0x0000000017818208       0xd0 common/built-in.o
 .text.cread_add_char
                0x00000000178182d8       0xe8 common/built-in.o
 .text.cli_readline_into_buffer
                0x00000000178183c0      0x9c0 common/built-in.o
                0x00000000178183c0                cli_readline_into_buffer
 .text.cli_readline
                0x0000000017818d80       0x14 common/built-in.o
                0x0000000017818d80                cli_readline
 .text.find_cmd_tbl
                0x0000000017818d94       0xa4 common/built-in.o
                0x0000000017818d94                find_cmd_tbl
 .text.find_cmd
                0x0000000017818e38       0x28 common/built-in.o
                0x0000000017818e38                find_cmd
 .text.cmd_usage
                0x0000000017818e60       0x5c common/built-in.o
                0x0000000017818e60                cmd_usage
 .text._do_help
                0x0000000017818ebc      0x180 common/built-in.o
                0x0000000017818ebc                _do_help
 .text.var_complete
                0x000000001781903c       0x7c common/built-in.o
                0x000000001781903c                var_complete
 .text.cmd_auto_complete
                0x00000000178190b8      0x4b0 common/built-in.o
                0x00000000178190b8                cmd_auto_complete
 .text.cmd_get_data_size
                0x0000000017819568       0x5c common/built-in.o
                0x0000000017819568                cmd_get_data_size
 .text.cmd_process
                0x00000000178195c4       0xf4 common/built-in.o
                0x00000000178195c4                cmd_process
 .text.cmd_process_error
                0x00000000178196b8       0x34 common/built-in.o
                0x00000000178196b8                cmd_process_error
 .text.hex1_bin
                0x00000000178196ec       0x40 common/built-in.o
 .text.hex2_bin
                0x000000001781972c       0x38 common/built-in.o
 .text.srec_decode
                0x0000000017819764      0x254 common/built-in.o
                0x0000000017819764                srec_decode
 .text.CYGACC_COMM_IF_GETC_TIMEOUT.isra.0
                0x00000000178199b8       0x5c common/built-in.o
 .text.xyzModem_flush
                0x0000000017819a14       0x1c common/built-in.o
 .text.xyzModem_get_hdr
                0x0000000017819a30      0x230 common/built-in.o
 .text.xyzModem_stream_open
                0x0000000017819c60      0x23c common/built-in.o
                0x0000000017819c60                xyzModem_stream_open
 .text.xyzModem_stream_read
                0x0000000017819e9c      0x258 common/built-in.o
                0x0000000017819e9c                xyzModem_stream_read
 .text.xyzModem_stream_close
                0x000000001781a0f4       0x54 common/built-in.o
                0x000000001781a0f4                xyzModem_stream_close
 .text.xyzModem_stream_terminate
                0x000000001781a148       0x94 common/built-in.o
                0x000000001781a148                xyzModem_stream_terminate
 .text.xyzModem_error
                0x000000001781a1dc       0x20 common/built-in.o
                0x000000001781a1dc                xyzModem_error
 .text.common_diskboot
                0x000000001781a1fc      0x238 common/built-in.o
                0x000000001781a1fc                common_diskboot
 .text.get_dev_hwpart
                0x000000001781a434       0xb0 disk/built-in.o
 .text.dev_print
                0x000000001781a4e4      0x204 disk/built-in.o
                0x000000001781a4e4                dev_print
 .text.init_part
                0x000000001781a6e8       0x20 disk/built-in.o
                0x000000001781a6e8                init_part
 .text.print_part
                0x000000001781a708       0xf4 disk/built-in.o
                0x000000001781a708                print_part
 .text.get_partition_info
                0x000000001781a7fc       0x2c disk/built-in.o
                0x000000001781a7fc                get_partition_info
 .text.get_device
                0x000000001781a828      0x114 disk/built-in.o
                0x000000001781a828                get_device
 .text.get_device_and_partition
                0x000000001781a93c      0x440 disk/built-in.o
                0x000000001781a93c                get_device_and_partition
 .text.test_block_type
                0x000000001781ad7c       0x84 disk/built-in.o
 .text.print_partition_extended
                0x000000001781ae00      0x278 disk/built-in.o
 .text.get_partition_info_extended.constprop.2
                0x000000001781b078      0x2d4 disk/built-in.o
 .text.test_part_dos
                0x000000001781b34c       0x64 disk/built-in.o
                0x000000001781b34c                test_part_dos
 .text.print_part_dos
                0x000000001781b3b0       0x34 disk/built-in.o
                0x000000001781b3b0                print_part_dos
 .text.get_partition_info_dos
                0x000000001781b3e4       0x20 disk/built-in.o
                0x000000001781b3e4                get_partition_info_dos
 .text.device_bind
                0x000000001781b404      0x268 drivers/built-in.o
                0x000000001781b404                device_bind
 .text.device_bind_by_name
                0x000000001781b66c       0x5c drivers/built-in.o
                0x000000001781b66c                device_bind_by_name
 .text.device_probe
                0x000000001781b6c8        0x8 drivers/built-in.o
                0x000000001781b6c8                device_probe
 .text.device_probe_child
                0x000000001781b6d0      0x208 drivers/built-in.o
                0x000000001781b6d0                device_probe_child
 .text.dev_get_platdata
                0x000000001781b8d8       0x34 drivers/built-in.o
                0x000000001781b8d8                dev_get_platdata
 .text.dev_get_priv
                0x000000001781b90c       0x34 drivers/built-in.o
                0x000000001781b90c                dev_get_priv
 .text.lists_driver_lookup_name
                0x000000001781b940       0x4c drivers/built-in.o
                0x000000001781b940                lists_driver_lookup_name
 .text.lists_uclass_lookup
                0x000000001781b98c       0x3c drivers/built-in.o
                0x000000001781b98c                lists_uclass_lookup
 .text.lists_bind_drivers
                0x000000001781b9c8       0x88 drivers/built-in.o
                0x000000001781b9c8                lists_bind_drivers
 .text.dm_root  0x000000001781ba50       0x28 drivers/built-in.o
                0x000000001781ba50                dm_root
 .text.dm_init  0x000000001781ba78       0x58 drivers/built-in.o
                0x000000001781ba78                dm_init
 .text.dm_scan_platdata
                0x000000001781bad0       0x2c drivers/built-in.o
                0x000000001781bad0                dm_scan_platdata
 .text.dm_scan_other
                0x000000001781bafc        0x8 drivers/built-in.o
                0x000000001781bafc                dm_scan_other
 .text.dm_init_and_scan
                0x000000001781bb04       0x30 drivers/built-in.o
                0x000000001781bb04                dm_init_and_scan
 .text.uclass_find
                0x000000001781bb34       0x4c drivers/built-in.o
                0x000000001781bb34                uclass_find
 .text.uclass_get
                0x000000001781bb80      0x134 drivers/built-in.o
                0x000000001781bb80                uclass_get
 .text.uclass_find_device
                0x000000001781bcb4       0x68 drivers/built-in.o
                0x000000001781bcb4                uclass_find_device
 .text.uclass_find_device_by_seq
                0x000000001781bd1c       0x7c drivers/built-in.o
                0x000000001781bd1c                uclass_find_device_by_seq
 .text.uclass_get_device
                0x000000001781bd98       0x3c drivers/built-in.o
                0x000000001781bd98                uclass_get_device
 .text.uclass_bind_device
                0x000000001781bdd4       0xa4 drivers/built-in.o
                0x000000001781bdd4                uclass_bind_device
 .text.uclass_unbind_device
                0x000000001781be78       0x50 drivers/built-in.o
                0x000000001781be78                uclass_unbind_device
 .text.uclass_resolve_seq
                0x000000001781bec8       0xb0 drivers/built-in.o
                0x000000001781bec8                uclass_resolve_seq
 .text.uclass_pre_probe_child
                0x000000001781bf78       0x2c drivers/built-in.o
                0x000000001781bf78                uclass_pre_probe_child
 .text.uclass_post_probe_device
                0x000000001781bfa4       0x20 drivers/built-in.o
                0x000000001781bfa4                uclass_post_probe_device
 .text.uclass_pre_remove_device
                0x000000001781bfc4       0x5c drivers/built-in.o
                0x000000001781bfc4                uclass_pre_remove_device
 .text.dm_warn  0x000000001781c020       0x28 drivers/built-in.o
                0x000000001781c020                dm_warn
 .text.device_free
                0x000000001781c048       0x90 drivers/built-in.o
                0x000000001781c048                device_free
 .text.device_remove
                0x000000001781c0d8      0x138 drivers/built-in.o
                0x000000001781c0d8                device_remove
 .text.finish_access
                0x000000001781c210       0x2c drivers/built-in.o
 .text.prepare_access
                0x000000001781c23c       0x8c drivers/built-in.o
 .text.set_timing
                0x000000001781c2c8       0xb8 drivers/built-in.o
 .text.fuse_read
                0x000000001781c380       0x6c drivers/built-in.o
                0x000000001781c380                fuse_read
 .text.fuse_sense
                0x000000001781c3ec       0xac drivers/built-in.o
                0x000000001781c3ec                fuse_sense
 .text.fuse_prog
                0x000000001781c498       0xa8 drivers/built-in.o
                0x000000001781c498                fuse_prog
 .text.fuse_override
                0x000000001781c540       0x60 drivers/built-in.o
                0x000000001781c540                fuse_override
 .text.video_drawchars
                0x000000001781c5a0      0x44c drivers/built-in.o
 .text.draw_bitmap
                0x000000001781c9ec       0xdc drivers/built-in.o
 .text.console_newline.constprop.1
                0x000000001781cac8       0xe0 drivers/built-in.o
 .text.video_putc
                0x000000001781cba8      0x194 drivers/built-in.o
 .text.video_puts
                0x000000001781cd3c       0x7c drivers/built-in.o
 .text.board_cfb_skip
                0x000000001781cdb8        0x8 drivers/built-in.o
                0x000000001781cdb8                board_cfb_skip
 .text.video_set_lut
                0x000000001781cdc0        0x8 drivers/built-in.o
                0x000000001781cdc4                video_set_lut
 .text.display_rle8_bitmap
                0x000000001781cdc8      0x348 drivers/built-in.o
 .text.plot_logo_or_black
                0x000000001781d110      0x268 drivers/built-in.o
 .text.do_clrlogo
                0x000000001781d378       0x58 drivers/built-in.o
 .text.video_display_bitmap
                0x000000001781d3d0      0x988 drivers/built-in.o
                0x000000001781d3d0                video_display_bitmap
 .text.video_clear
                0x000000001781dd58       0x54 drivers/built-in.o
                0x000000001781dd58                video_clear
 .text.drv_video_init
                0x000000001781ddac      0x41c drivers/built-in.o
                0x000000001781ddac                drv_video_init
 .text.mxcfb_map_video_memory
                0x000000001781e1c8       0x88 drivers/built-in.o
 .text.ipuv3_fb_shutdown
                0x000000001781e250       0x60 drivers/built-in.o
                0x000000001781e250                ipuv3_fb_shutdown
 .text.video_hw_init
                0x000000001781e2b0      0x5cc drivers/built-in.o
                0x000000001781e2b0                video_hw_init
 .text.ipuv3_fb_init
                0x000000001781e87c       0x2c drivers/built-in.o
                0x000000001781e87c                ipuv3_fb_init
 .text.clk_ipu_enable
                0x000000001781e8a8       0x20 drivers/built-in.o
 .text.clk_ipu_disable
                0x000000001781e8c8       0x1c drivers/built-in.o
 .text.ipu_pixel_clk_recalc
                0x000000001781e8e4       0x44 drivers/built-in.o
 .text.ipu_pixel_clk_round_rate
                0x000000001781e928       0x7c drivers/built-in.o
 .text.ipu_pixel_clk_set_rate
                0x000000001781e9a4       0x68 drivers/built-in.o
 .text.ipu_pixel_clk_enable
                0x000000001781ea0c       0x28 drivers/built-in.o
 .text.ipu_pixel_clk_disable
                0x000000001781ea34       0x24 drivers/built-in.o
 .text.ipu_pixel_clk_set_parent
                0x000000001781ea58       0x84 drivers/built-in.o
 .text.clk_enable
                0x000000001781eadc       0x24 drivers/built-in.o
                0x000000001781eadc                clk_enable
 .text.clk_disable
                0x000000001781eb00       0x30 drivers/built-in.o
                0x000000001781eb00                clk_disable
 .text.clk_get_usecount
                0x000000001781eb30        0xc drivers/built-in.o
                0x000000001781eb30                clk_get_usecount
 .text.clk_get_rate
                0x000000001781eb3c        0xc drivers/built-in.o
                0x000000001781eb3c                clk_get_rate
 .text.clk_get_parent
                0x000000001781eb48        0xc drivers/built-in.o
                0x000000001781eb48                clk_get_parent
 .text.clk_set_rate
                0x000000001781eb54       0x24 drivers/built-in.o
                0x000000001781eb54                clk_set_rate
 .text.clk_round_rate
                0x000000001781eb78       0x20 drivers/built-in.o
                0x000000001781eb78                clk_round_rate
 .text.clk_set_parent
                0x000000001781eb98       0x1c drivers/built-in.o
                0x000000001781eb98                clk_set_parent
 .text.ipu_probe
                0x000000001781ebb4      0x150 drivers/built-in.o
                0x000000001781ebb4                ipu_probe
 .text.ipu_dump_registers
                0x000000001781ed04        0x4 drivers/built-in.o
                0x000000001781ed04                ipu_dump_registers
 .text.ipu_init_channel
                0x000000001781ed08      0x1fc drivers/built-in.o
                0x000000001781ed08                ipu_init_channel
 .text.ipu_uninit_channel
                0x000000001781ef04      0x220 drivers/built-in.o
                0x000000001781ef04                ipu_uninit_channel
 .text.ipu_enable_channel
                0x000000001781f124       0xe8 drivers/built-in.o
                0x000000001781f124                ipu_enable_channel
 .text.ipu_clear_buffer_ready
                0x000000001781f20c       0x7c drivers/built-in.o
                0x000000001781f20c                ipu_clear_buffer_ready
 .text.ipu_disable_channel
                0x000000001781f288      0x198 drivers/built-in.o
                0x000000001781f288                ipu_disable_channel
 .text.bytes_per_pixel
                0x000000001781f420       0xec drivers/built-in.o
                0x000000001781f420                bytes_per_pixel
 .text.ipu_init_channel_buffer
                0x000000001781f50c      0x5c0 drivers/built-in.o
                0x000000001781f50c                ipu_init_channel_buffer
 .text.format_to_colorspace
                0x000000001781facc       0xc4 drivers/built-in.o
                0x000000001781facc                format_to_colorspace
 .text.ipu_dc_map_config
                0x000000001781fb90       0x70 drivers/built-in.o
 .text.rgb_to_yuv
                0x000000001781fc00       0x70 drivers/built-in.o
 .text.ipu_dc_link_event
                0x000000001781fc70      0x170 drivers/built-in.o
 .text.ipu_dp_csc_setup.isra.0
                0x000000001781fde0      0x100 drivers/built-in.o
 .text.ipu_di_sync_config.constprop.3
                0x000000001781fee0       0xf0 drivers/built-in.o
 .text.ipu_dmfc_init
                0x000000001781ffd0      0x158 drivers/built-in.o
                0x000000001781ffd0                ipu_dmfc_init
 .text.ipu_dmfc_set_wait4eot
                0x0000000017820128      0x130 drivers/built-in.o
                0x0000000017820128                ipu_dmfc_set_wait4eot
 .text.ipu_dp_init
                0x0000000017820258      0x1f8 drivers/built-in.o
                0x0000000017820258                ipu_dp_init
 .text.ipu_dp_uninit
                0x0000000017820450       0x7c drivers/built-in.o
                0x0000000017820450                ipu_dp_uninit
 .text.ipu_dc_init
                0x00000000178204cc      0x2d0 drivers/built-in.o
                0x00000000178204cc                ipu_dc_init
 .text.ipu_dc_uninit
                0x000000001782079c      0x1b4 drivers/built-in.o
                0x000000001782079c                ipu_dc_uninit
 .text.ipu_dp_dc_enable
                0x0000000017820950      0x1b4 drivers/built-in.o
                0x0000000017820950                ipu_dp_dc_enable
 .text.ipu_dp_dc_disable
                0x0000000017820b04      0x2f4 drivers/built-in.o
                0x0000000017820b04                ipu_dp_dc_disable
 .text.ipu_init_dc_mappings
                0x0000000017820df8      0x184 drivers/built-in.o
                0x0000000017820df8                ipu_init_dc_mappings
 .text.ipu_init_sync_panel
                0x0000000017820f7c      0x7c0 drivers/built-in.o
                0x0000000017820f7c                ipu_init_sync_panel
 .text.ipu_disp_set_global_alpha
                0x000000001782173c      0x100 drivers/built-in.o
                0x000000001782173c                ipu_disp_set_global_alpha
 .text.ipu_disp_set_color_key
                0x000000001782183c      0x1a4 drivers/built-in.o
                0x000000001782183c                ipu_disp_set_color_key
 .text.reset_cpu
                0x00000000178219e0       0x28 drivers/built-in.o
                0x00000000178219e0                reset_cpu
 .text.thermal_get_temp
                0x0000000017821a08       0x20 drivers/built-in.o
                0x0000000017821a08                thermal_get_temp
 .text.read_cpu_temperature
                0x0000000017821a28       0xec drivers/built-in.o
 .text.imx_thermal_get_temp
                0x0000000017821b14       0x6c drivers/built-in.o
                0x0000000017821b14                imx_thermal_get_temp
 .text.imx_thermal_probe
                0x0000000017821b80       0x88 drivers/built-in.o
 .text.gpio_set_value
                0x0000000017821c08       0x44 drivers/gpio/built-in.o
                0x0000000017821c08                gpio_set_value
 .text.gpio_get_value
                0x0000000017821c4c       0x34 drivers/gpio/built-in.o
                0x0000000017821c4c                gpio_get_value
 .text.gpio_request
                0x0000000017821c80       0x10 drivers/gpio/built-in.o
                0x0000000017821c80                gpio_request
 .text.gpio_free
                0x0000000017821c90        0x8 drivers/gpio/built-in.o
                0x0000000017821c90                gpio_free
 .text.gpio_direction_input
                0x0000000017821c98       0x3c drivers/gpio/built-in.o
                0x0000000017821c98                gpio_direction_input
 .text.gpio_direction_output
                0x0000000017821cd4       0x50 drivers/gpio/built-in.o
                0x0000000017821cd4                gpio_direction_output
 .text.i2c_get_adapter
                0x0000000017821d24       0x64 drivers/i2c/built-in.o
                0x0000000017821d24                i2c_get_adapter
 .text.i2c_init_bus
                0x0000000017821d88       0x90 drivers/i2c/built-in.o
 .text.i2c_get_bus_num
                0x0000000017821e18        0x8 drivers/i2c/built-in.o
                0x0000000017821e18                i2c_get_bus_num
 .text.i2c_set_bus_num
                0x0000000017821e20       0xbc drivers/i2c/built-in.o
                0x0000000017821e20                i2c_set_bus_num
 .text.i2c_init_all
                0x0000000017821edc       0x14 drivers/i2c/built-in.o
                0x0000000017821edc                i2c_init_all
 .text.i2c_probe
                0x0000000017821ef0       0x2c drivers/i2c/built-in.o
                0x0000000017821ef0                i2c_probe
 .text.i2c_read
                0x0000000017821f1c       0x4c drivers/i2c/built-in.o
                0x0000000017821f1c                i2c_read
 .text.i2c_write
                0x0000000017821f68       0x4c drivers/i2c/built-in.o
                0x0000000017821f68                i2c_write
 .text.i2c_set_bus_speed
                0x0000000017821fb4       0x64 drivers/i2c/built-in.o
                0x0000000017821fb4                i2c_set_bus_speed
 .text.i2c_get_bus_speed
                0x0000000017822018       0x14 drivers/i2c/built-in.o
                0x0000000017822018                i2c_get_bus_speed
 .text.i2c_init
                0x000000001782202c       0x14 drivers/i2c/built-in.o
                0x000000001782202c                i2c_init
 .text.wait_for_sr_state
                0x0000000017822040       0xb0 drivers/i2c/built-in.o
 .text.tx_byte  0x00000000178220f0       0x2c drivers/i2c/built-in.o
 .text.i2c_imx_get_clk
                0x000000001782211c       0x64 drivers/i2c/built-in.o
 .text.i2c_imx_stop
                0x0000000017822180       0x3c drivers/i2c/built-in.o
 .text.i2c_init_transfer
                0x00000000178221bc      0x1d8 drivers/i2c/built-in.o
 .text.mxc_i2c_set_bus_speed
                0x0000000017822394       0x50 drivers/i2c/built-in.o
 .text.bus_i2c_read
                0x00000000178223e4      0x108 drivers/i2c/built-in.o
                0x00000000178223e4                bus_i2c_read
 .text.mxc_i2c_read
                0x00000000178224ec       0x14 drivers/i2c/built-in.o
 .text.bus_i2c_write
                0x0000000017822500       0x60 drivers/i2c/built-in.o
                0x0000000017822500                bus_i2c_write
 .text.mxc_i2c_write
                0x0000000017822560       0x14 drivers/i2c/built-in.o
 .text.mxc_i2c_probe
                0x0000000017822574       0x30 drivers/i2c/built-in.o
 .text.bus_i2c_init
                0x00000000178225a4       0x74 drivers/i2c/built-in.o
                0x00000000178225a4                bus_i2c_init
 .text.mxc_i2c_init
                0x0000000017822618       0x28 drivers/i2c/built-in.o
 .text.esdhc_getcd
                0x0000000017822640       0x40 drivers/mmc/built-in.o
 .text.esdhc_set_ios
                0x0000000017822680      0x124 drivers/mmc/built-in.o
 .text.esdhc_init
                0x00000000178227a4       0x88 drivers/mmc/built-in.o
 .text.esdhc_send_cmd
                0x000000001782282c      0x3e0 drivers/mmc/built-in.o
 .text.fsl_esdhc_initialize
                0x0000000017822c0c      0x168 drivers/mmc/built-in.o
                0x0000000017822c0c                fsl_esdhc_initialize
 .text.fsl_esdhc_mmc_init
                0x0000000017822d74       0x34 drivers/mmc/built-in.o
                0x0000000017822d74                fsl_esdhc_mmc_init
 .text.mmc_set_ios
                0x0000000017822da8       0x18 drivers/mmc/built-in.o
 .text.mmc_set_capacity
                0x0000000017822dc0       0xa8 drivers/mmc/built-in.o
 .text.board_mmc_getwp
                0x0000000017822e68        0x8 drivers/mmc/built-in.o
                0x0000000017822e68                board_mmc_getwp
 .text.mmc_getwp
                0x0000000017822e70       0x3c drivers/mmc/built-in.o
                0x0000000017822e70                mmc_getwp
 .text.mmc_send_cmd
                0x0000000017822eac       0x10 drivers/mmc/built-in.o
                0x0000000017822eac                mmc_send_cmd
 .text.mmc_send_ext_csd
                0x0000000017822ebc       0x4c drivers/mmc/built-in.o
 .text.mmc_go_idle
                0x0000000017822f08       0x4c drivers/mmc/built-in.o
 .text.mmc_send_op_cond_iter
                0x0000000017822f54       0x80 drivers/mmc/built-in.o
 .text.mmc_send_status
                0x0000000017822fd4       0xd0 drivers/mmc/built-in.o
                0x0000000017822fd4                mmc_send_status
 .text.mmc_switch.isra.1
                0x00000000178230a4       0x54 drivers/mmc/built-in.o
 .text.mmc_set_blocklen
                0x00000000178230f8       0x40 drivers/mmc/built-in.o
                0x00000000178230f8                mmc_set_blocklen
 .text.find_mmc_device
                0x0000000017823138       0x4c drivers/mmc/built-in.o
                0x0000000017823138                find_mmc_device
 .text.mmc_bread
                0x0000000017823184      0x144 drivers/mmc/built-in.o
 .text.mmc_switch_part
                0x00000000178232c8       0x58 drivers/mmc/built-in.o
                0x00000000178232c8                mmc_switch_part
 .text.mmc_select_hwpart
                0x0000000017823320       0x6c drivers/mmc/built-in.o
                0x0000000017823320                mmc_select_hwpart
 .text.mmc_hwpart_config
                0x000000001782338c      0x41c drivers/mmc/built-in.o
                0x000000001782338c                mmc_hwpart_config
 .text.mmc_getcd
                0x00000000178237a8       0x3c drivers/mmc/built-in.o
                0x00000000178237a8                mmc_getcd
 .text.mmc_set_clock
                0x00000000178237e4       0x24 drivers/mmc/built-in.o
                0x00000000178237e4                mmc_set_clock
 .text.mmc_startup
                0x0000000017823808      0xcb8 drivers/mmc/built-in.o
 .text.mmc_create
                0x00000000178244c0       0xfc drivers/mmc/built-in.o
                0x00000000178244c0                mmc_create
 .text.board_mmc_power_init
                0x00000000178245bc        0x4 drivers/mmc/built-in.o
                0x00000000178245bc                board_mmc_power_init
 .text.mmc_start_init
                0x00000000178245c0      0x288 drivers/mmc/built-in.o
                0x00000000178245c0                mmc_start_init
 .text.mmc_init
                0x0000000017824848      0x100 drivers/mmc/built-in.o
                0x0000000017824848                mmc_init
 .text.mmc_get_dev
                0x0000000017824948       0x2c drivers/mmc/built-in.o
                0x0000000017824948                mmc_get_dev
 .text.mmc_set_dsr
                0x0000000017824974        0xc drivers/mmc/built-in.o
                0x0000000017824974                mmc_set_dsr
 .text.print_mmc_devices
                0x0000000017824980       0xc0 drivers/mmc/built-in.o
                0x0000000017824980                print_mmc_devices
 .text.get_mmc_num
                0x0000000017824a40       0x10 drivers/mmc/built-in.o
                0x0000000017824a40                get_mmc_num
 .text.mmc_initialize
                0x0000000017824a50       0x74 drivers/mmc/built-in.o
                0x0000000017824a50                mmc_initialize
 .text.mmc_boot_partition_size_change
                0x0000000017824ac4       0xc4 drivers/mmc/built-in.o
                0x0000000017824ac4                mmc_boot_partition_size_change
 .text.mmc_set_boot_bus_width
                0x0000000017824b88       0x14 drivers/mmc/built-in.o
                0x0000000017824b88                mmc_set_boot_bus_width
 .text.mmc_set_part_conf
                0x0000000017824b9c       0x14 drivers/mmc/built-in.o
                0x0000000017824b9c                mmc_set_part_conf
 .text.mmc_set_rst_n_function
                0x0000000017824bb0        0xc drivers/mmc/built-in.o
                0x0000000017824bb0                mmc_set_rst_n_function
 .text.mmc_berase
                0x0000000017824bbc      0x194 drivers/mmc/built-in.o
                0x0000000017824bbc                mmc_berase
 .text.mmc_bwrite
                0x0000000017824d50      0x164 drivers/mmc/built-in.o
                0x0000000017824d50                mmc_bwrite
 .text.spi_flash_probe_slave
                0x0000000017824eb4      0x390 drivers/mtd/spi/built-in.o
                0x0000000017824eb4                spi_flash_probe_slave
 .text.spi_flash_probe_tail
                0x0000000017825244       0x50 drivers/mtd/spi/built-in.o
                0x0000000017825244                spi_flash_probe_tail
 .text.spi_flash_probe
                0x0000000017825294       0x10 drivers/mtd/spi/built-in.o
                0x0000000017825294                spi_flash_probe
 .text.spi_flash_free
                0x00000000178252a4       0x1c drivers/mtd/spi/built-in.o
                0x00000000178252a4                spi_flash_free
 .text.spi_flash_read_write
                0x00000000178252c0       0x74 drivers/mtd/spi/built-in.o
 .text.spi_flash_cmd_read
                0x0000000017825334       0x20 drivers/mtd/spi/built-in.o
                0x0000000017825334                spi_flash_cmd_read
 .text.spi_flash_cmd
                0x0000000017825354       0x2c drivers/mtd/spi/built-in.o
                0x0000000017825354                spi_flash_cmd
 .text.spi_flash_cmd_write
                0x0000000017825380       0x20 drivers/mtd/spi/built-in.o
                0x0000000017825380                spi_flash_cmd_write
 .text.spi_flash_cmd_wait_ready
                0x00000000178253a0       0xdc drivers/mtd/spi/built-in.o
                0x00000000178253a0                spi_flash_cmd_wait_ready
 .text.sst_byte_write
                0x000000001782547c       0x80 drivers/mtd/spi/built-in.o
 .text.spi_flash_write_common
                0x00000000178254fc       0x9c drivers/mtd/spi/built-in.o
                0x00000000178254fc                spi_flash_write_common
 .text.spi_flash_cmd_write_status
                0x0000000017825598       0x2c drivers/mtd/spi/built-in.o
                0x0000000017825598                spi_flash_cmd_write_status
 .text.spi_flash_cmd_erase_ops
                0x00000000178255c4       0xa8 drivers/mtd/spi/built-in.o
                0x00000000178255c4                spi_flash_cmd_erase_ops
 .text.spi_flash_cmd_write_ops
                0x000000001782566c       0xb8 drivers/mtd/spi/built-in.o
                0x000000001782566c                spi_flash_cmd_write_ops
 .text.spi_flash_read_common
                0x0000000017825724       0x5c drivers/mtd/spi/built-in.o
                0x0000000017825724                spi_flash_read_common
 .text.spi_flash_cmd_read_ops
                0x0000000017825780      0x140 drivers/mtd/spi/built-in.o
                0x0000000017825780                spi_flash_cmd_read_ops
 .text.sst_write_wp
                0x00000000178258c0      0x13c drivers/mtd/spi/built-in.o
                0x00000000178258c0                sst_write_wp
 .text.sst_write_bp
                0x00000000178259fc       0x80 drivers/mtd/spi/built-in.o
                0x00000000178259fc                sst_write_bp
 .text.fec_set_hwaddr
                0x0000000017825a7c       0x78 drivers/net/built-in.o
 .text.fec_reg_setup
                0x0000000017825af4       0x64 drivers/net/built-in.o
 .text.fec_phy_write
                0x0000000017825b58       0x74 drivers/net/built-in.o
 .text.fec_phy_read
                0x0000000017825bcc       0x7c drivers/net/built-in.o
 .text.fec_halt
                0x0000000017825c48       0x68 drivers/net/built-in.o
 .text.fec_send
                0x0000000017825cb0      0x130 drivers/net/built-in.o
 .text.fec_mii_setspeed
                0x0000000017825de0       0x38 drivers/net/built-in.o
 .text.fec_init
                0x0000000017825e18      0x270 drivers/net/built-in.o
 .text.fec_recv
                0x0000000017826088      0x200 drivers/net/built-in.o
 .text.fec_probe
                0x0000000017826288      0x37c drivers/net/built-in.o
                0x0000000017826288                fec_probe
 .text.fec_get_miibus
                0x0000000017826604       0xa4 drivers/net/built-in.o
                0x0000000017826604                fec_get_miibus
 .text.fecmxc_initialize_multi
                0x00000000178266a8       0x90 drivers/net/built-in.o
                0x00000000178266a8                fecmxc_initialize_multi
 .text.fecmxc_initialize
                0x0000000017826738       0x14 drivers/net/built-in.o
                0x0000000017826738                fecmxc_initialize
 .text.genphy_shutdown
                0x000000001782674c        0x8 drivers/net/phy/built-in.o
                0x000000001782674c                genphy_shutdown
 .text.generic_ffs
                0x0000000017826754       0x50 drivers/net/phy/built-in.o
 .text.phy_device_create
                0x00000000178267a4       0xe4 drivers/net/phy/built-in.o
 .text.get_phy_device_by_mask
                0x0000000017826888      0x148 drivers/net/phy/built-in.o
 .text.genphy_restart_aneg
                0x00000000178269d0       0x5c drivers/net/phy/built-in.o
                0x00000000178269d0                genphy_restart_aneg
 .text.genphy_config_aneg
                0x0000000017826a2c      0x1d8 drivers/net/phy/built-in.o
                0x0000000017826a2c                genphy_config_aneg
 .text.genphy_config
                0x0000000017826c04       0xb4 drivers/net/phy/built-in.o
                0x0000000017826c04                genphy_config
 .text.genphy_update_link
                0x0000000017826cb8      0x140 drivers/net/phy/built-in.o
                0x0000000017826cb8                genphy_update_link
 .text.genphy_parse_link
                0x0000000017826df8      0x194 drivers/net/phy/built-in.o
                0x0000000017826df8                genphy_parse_link
 .text.genphy_startup
                0x0000000017826f8c       0x1c drivers/net/phy/built-in.o
                0x0000000017826f8c                genphy_startup
 .text.phy_init
                0x0000000017826fa8       0x10 drivers/net/phy/built-in.o
                0x0000000017826fa8                phy_init
 .text.phy_register
                0x0000000017826fb8       0x28 drivers/net/phy/built-in.o
                0x0000000017826fb8                phy_register
 .text.phy_reset
                0x0000000017826fe0       0xac drivers/net/phy/built-in.o
                0x0000000017826fe0                phy_reset
 .text.phy_find_by_mask
                0x000000001782708c       0x3c drivers/net/phy/built-in.o
                0x000000001782708c                phy_find_by_mask
 .text.phy_connect_dev
                0x00000000178270c8       0x44 drivers/net/phy/built-in.o
                0x00000000178270c8                phy_connect_dev
 .text.phy_startup
                0x000000001782710c       0x1c drivers/net/phy/built-in.o
                0x000000001782710c                phy_startup
 .text.phy_config
                0x0000000017827128       0x10 drivers/net/phy/built-in.o
                0x0000000017827128                phy_config
 .text.ksz8895_startup
                0x0000000017827138        0x8 drivers/net/phy/built-in.o
 .text.ksz90xx_startup
                0x0000000017827140       0x60 drivers/net/phy/built-in.o
 .text.ksz9021_config
                0x00000000178271a0       0x78 drivers/net/phy/built-in.o
 .text.ksz8895_config
                0x0000000017827218       0x3c drivers/net/phy/built-in.o
                0x0000000017827218                ksz8895_config
 .text.ksz9021_phy_extended_write
                0x0000000017827254       0x58 drivers/net/phy/built-in.o
                0x0000000017827254                ksz9021_phy_extended_write
 .text.ksz9021_phy_extwrite
                0x00000000178272ac        0xc drivers/net/phy/built-in.o
 .text.ksz9021_phy_extended_read
                0x00000000178272b8       0x48 drivers/net/phy/built-in.o
                0x00000000178272b8                ksz9021_phy_extended_read
 .text.ksz9021_phy_extread
                0x0000000017827300        0x8 drivers/net/phy/built-in.o
 .text.ksz9031_phy_extended_write
                0x0000000017827308       0xa0 drivers/net/phy/built-in.o
                0x0000000017827308                ksz9031_phy_extended_write
 .text.ksz9031_phy_extwrite
                0x00000000178273a8       0x18 drivers/net/phy/built-in.o
 .text.ksz9031_phy_extended_read
                0x00000000178273c0       0x98 drivers/net/phy/built-in.o
                0x00000000178273c0                ksz9031_phy_extended_read
 .text.ksz9031_phy_extread
                0x0000000017827458       0x10 drivers/net/phy/built-in.o
 .text.phy_micrel_init
                0x0000000017827468       0x3c drivers/net/phy/built-in.o
                0x0000000017827468                phy_micrel_init
 .text.pci_hose_read_config_byte
                0x00000000178274a4        0x8 drivers/pci/built-in.o
                0x00000000178274a4                pci_hose_read_config_byte
 .text.pci_hose_read_config_word
                0x00000000178274ac        0x8 drivers/pci/built-in.o
                0x00000000178274ac                pci_hose_read_config_word
 .text.pci_hose_read_config_dword
                0x00000000178274b4        0x8 drivers/pci/built-in.o
                0x00000000178274b4                pci_hose_read_config_dword
 .text.pci_hose_write_config_byte
                0x00000000178274bc        0x8 drivers/pci/built-in.o
                0x00000000178274bc                pci_hose_write_config_byte
 .text.pci_hose_write_config_word
                0x00000000178274c4        0x8 drivers/pci/built-in.o
                0x00000000178274c4                pci_hose_write_config_word
 .text.pci_hose_write_config_dword
                0x00000000178274cc        0x8 drivers/pci/built-in.o
                0x00000000178274cc                pci_hose_write_config_dword
 .text.pci_hose_read_config_byte_via_dword
                0x00000000178274d4       0x44 drivers/pci/built-in.o
                0x00000000178274d4                pci_hose_read_config_byte_via_dword
 .text.pci_hose_read_config_word_via_dword
                0x0000000017827518       0x44 drivers/pci/built-in.o
                0x0000000017827518                pci_hose_read_config_word_via_dword
 .text.pci_hose_write_config_byte_via_dword
                0x000000001782755c       0x68 drivers/pci/built-in.o
                0x000000001782755c                pci_hose_write_config_byte_via_dword
 .text.pci_hose_write_config_word_via_dword
                0x00000000178275c4       0x68 drivers/pci/built-in.o
                0x00000000178275c4                pci_hose_write_config_word_via_dword
 .text.pci_get_hose_head
                0x000000001782762c       0x20 drivers/pci/built-in.o
                0x000000001782762c                pci_get_hose_head
 .text.pci_register_hose
                0x000000001782764c       0x28 drivers/pci/built-in.o
                0x000000001782764c                pci_register_hose
 .text.pci_bus_to_hose
                0x0000000017827674       0x4c drivers/pci/built-in.o
                0x0000000017827674                pci_bus_to_hose
 .text.pci_read_config_byte
                0x00000000178276c0       0x40 drivers/pci/built-in.o
                0x00000000178276c0                pci_read_config_byte
 .text.pci_read_config_word
                0x0000000017827700       0x40 drivers/pci/built-in.o
                0x0000000017827700                pci_read_config_word
 .text.pci_read_config_dword
                0x0000000017827740       0x40 drivers/pci/built-in.o
                0x0000000017827740                pci_read_config_dword
 .text.pci_write_config_byte
                0x0000000017827780       0x3c drivers/pci/built-in.o
                0x0000000017827780                pci_write_config_byte
 .text.pci_write_config_word
                0x00000000178277bc       0x3c drivers/pci/built-in.o
                0x00000000178277bc                pci_write_config_word
 .text.pci_write_config_dword
                0x00000000178277f8       0x3c drivers/pci/built-in.o
                0x00000000178277f8                pci_write_config_dword
 .text.pci_class_str
                0x0000000017827834      0x168 drivers/pci/built-in.o
                0x0000000017827834                pci_class_str
 .text.pci_skip_dev
                0x000000001782799c       0x14 drivers/pci/built-in.o
                0x000000001782799c                pci_skip_dev
 .text.pci_print_dev
                0x00000000178279b0       0x14 drivers/pci/built-in.o
                0x00000000178279b0                pci_print_dev
 .text.pci_hose_scan_bus
                0x00000000178279c4      0x1b0 drivers/pci/built-in.o
                0x00000000178279c4                pci_hose_scan_bus
 .text.pci_hose_scan
                0x0000000017827b74       0x2c drivers/pci/built-in.o
                0x0000000017827b74                pci_hose_scan
 .text.pci_init
                0x0000000017827ba0       0x14 drivers/pci/built-in.o
                0x0000000017827ba0                pci_init
 .text.pciauto_region_init
                0x0000000017827bb4       0x14 drivers/pci/built-in.o
                0x0000000017827bb4                pciauto_region_init
 .text.pciauto_region_align
                0x0000000017827bc8       0x1c drivers/pci/built-in.o
                0x0000000017827bc8                pciauto_region_align
 .text.pciauto_region_allocate
                0x0000000017827be4       0x5c drivers/pci/built-in.o
                0x0000000017827be4                pciauto_region_allocate
 .text.pciauto_setup_device
                0x0000000017827c40      0x1d8 drivers/pci/built-in.o
                0x0000000017827c40                pciauto_setup_device
 .text.pciauto_prescan_setup_bridge
                0x0000000017827e18      0x1fc drivers/pci/built-in.o
                0x0000000017827e18                pciauto_prescan_setup_bridge
 .text.pciauto_postscan_setup_bridge
                0x0000000017828014      0x124 drivers/pci/built-in.o
                0x0000000017828014                pciauto_postscan_setup_bridge
 .text.pciauto_config_init
                0x0000000017828138       0xec drivers/pci/built-in.o
                0x0000000017828138                pciauto_config_init
 .text.pciauto_config_device
                0x0000000017828224      0x13c drivers/pci/built-in.o
                0x0000000017828224                pciauto_config_device
 .text.get_bus_address
                0x0000000017828360       0x78 drivers/pci/built-in.o
 .text.imx_pcie_addr_valid
                0x00000000178283d8       0x3c drivers/pci/built-in.o
 .text.pcie_phy_poll_ack.constprop.10
                0x0000000017828414       0x44 drivers/pci/built-in.o
 .text.pcie_phy_write.part.3.constprop.8
                0x0000000017828458       0x74 drivers/pci/built-in.o
 .text.pcie_phy_wait_ack.constprop.7
                0x00000000178284cc       0x38 drivers/pci/built-in.o
 .text.pcie_phy_read.constprop.6
                0x0000000017828504       0x54 drivers/pci/built-in.o
 .text.imx_pcie_read_config
                0x0000000017828558       0x78 drivers/pci/built-in.o
 .text.imx_pcie_write_config
                0x00000000178285d0       0x64 drivers/pci/built-in.o
 .text.imx6_pcie_toggle_power
                0x0000000017828634       0x34 drivers/pci/built-in.o
                0x0000000017828634                imx6_pcie_toggle_power
 .text.imx6_pcie_toggle_reset
                0x0000000017828668       0x34 drivers/pci/built-in.o
                0x0000000017828668                imx6_pcie_toggle_reset
 .text.imx_pcie_init
                0x000000001782869c      0x2a4 drivers/pci/built-in.o
                0x000000001782869c                imx_pcie_init
 .text.pci_init_board
                0x0000000017828940        0x4 drivers/pci/built-in.o
                0x0000000017828940                pci_init_board
 .text.check_reg
                0x0000000017828944       0x2c drivers/power/built-in.o
                0x0000000017828944                check_reg
 .text.pmic_get
                0x0000000017828970       0x58 drivers/power/built-in.o
                0x0000000017828970                pmic_get
 .text.power_get_interface
                0x00000000178289c8       0x2c drivers/power/built-in.o
                0x00000000178289c8                power_get_interface
 .text.do_pmic  0x00000000178289f4      0x2e8 drivers/power/built-in.o
                0x00000000178289f4                do_pmic
 .text.pmic_reg_write
                0x0000000017828cdc       0xe4 drivers/power/built-in.o
                0x0000000017828cdc                pmic_reg_write
 .text.pmic_reg_read
                0x0000000017828dc0      0x108 drivers/power/built-in.o
                0x0000000017828dc0                pmic_reg_read
 .text.serial_stub_start
                0x0000000017828ec8        0xc drivers/serial/built-in.o
 .text.serial_stub_stop
                0x0000000017828ed4        0xc drivers/serial/built-in.o
 .text.serial_stub_putc
                0x0000000017828ee0       0x10 drivers/serial/built-in.o
 .text.serial_stub_puts
                0x0000000017828ef0       0x10 drivers/serial/built-in.o
 .text.serial_stub_getc
                0x0000000017828f00        0xc drivers/serial/built-in.o
                0x0000000017828f00                serial_stub_getc
 .text.serial_stub_tstc
                0x0000000017828f0c        0xc drivers/serial/built-in.o
                0x0000000017828f0c                serial_stub_tstc
 .text.get_current
                0x0000000017828f18       0x40 drivers/serial/built-in.o
 .text.serial_null
                0x0000000017828f58        0x4 drivers/serial/built-in.o
                0x0000000017828f58                jz_serial_initialize
                0x0000000017828f58                bfin_serial_initialize
                0x0000000017828f58                p3mx_serial_initialize
                0x0000000017828f58                leon2_serial_initialize
                0x0000000017828f58                leon3_serial_initialize
                0x0000000017828f58                amirix_serial_initialize
                0x0000000017828f58                marvell_serial_initialize
                0x0000000017828f58                cpci750_serial_initialize
                0x0000000017828f58                ns16550_serial_initialize
                0x0000000017828f58                asc_serial_initialize
                0x0000000017828f58                altera_serial_initialize
                0x0000000017828f58                oc_serial_initialize
                0x0000000017828f58                sh_serial_initialize
                0x0000000017828f58                mxs_auart_initialize
                0x0000000017828f58                arm_dcc_initialize
                0x0000000017828f58                bmw_serial_initialize
                0x0000000017828f58                arc_serial_initialize
                0x0000000017828f58                mcf_serial_initialize
                0x0000000017828f58                lh7a40x_serial_initialize
                0x0000000017828f58                evb64260_serial_initialize
                0x0000000017828f58                lpc32xx_serial_initialize
                0x0000000017828f58                max3100_serial_initialize
                0x0000000017828f58                mpc85xx_serial_initialize
                0x0000000017828f58                imx_serial_initialize
                0x0000000017828f58                bfin_jtag_initialize
                0x0000000017828f58                cogent_serial_initialize
                0x0000000017828f58                clps7111_serial_initialize
                0x0000000017828f58                ml2_serial_initialize
                0x0000000017828f58                sandbox_serial_initialize
                0x0000000017828f58                s3c24xx_serial_initialize
                0x0000000017828f58                sconsole_serial_initialize
                0x0000000017828f58                uartlite_serial_initialize
                0x0000000017828f58                au1x00_serial_initialize
                0x0000000017828f58                pxa_serial_initialize
                0x0000000017828f58                atmel_serial_initialize
                0x0000000017828f58                pl01x_serial_initialize
                0x0000000017828f58                altera_jtag_serial_initialize
                0x0000000017828f58                mpc512x_serial_initialize
                0x0000000017828f58                s5p_serial_initialize
                0x0000000017828f58                zynq_serial_initialize
                0x0000000017828f58                sa1100_serial_initialize
                0x0000000017828f58                mpc8260_scc_serial_initialize
                0x0000000017828f58                iop480_serial_initialize
                0x0000000017828f58                mpc8xx_serial_initialize
                0x0000000017828f58                mpc8260_smc_serial_initialize
                0x0000000017828f58                mpc5xx_serial_initialize
 .text.serial_register
                0x0000000017828f5c       0x18 drivers/serial/built-in.o
                0x0000000017828f5c                serial_register
 .text.serial_stdio_init
                0x0000000017828f74       0xa4 drivers/serial/built-in.o
                0x0000000017828f74                serial_stdio_init
 .text.serial_assign
                0x0000000017829018       0x4c drivers/serial/built-in.o
                0x0000000017829018                serial_assign
 .text.serial_initialize
                0x0000000017829064       0xcc drivers/serial/built-in.o
                0x0000000017829064                serial_initialize
 .text.serial_init
                0x0000000017829130       0x20 drivers/serial/built-in.o
                0x0000000017829130                serial_init
 .text.serial_setbrg
                0x0000000017829150       0x14 drivers/serial/built-in.o
                0x0000000017829150                serial_setbrg
 .text.on_baudrate
                0x0000000017829164       0xec drivers/serial/built-in.o
 .text.serial_getc
                0x0000000017829250       0x14 drivers/serial/built-in.o
                0x0000000017829250                serial_getc
 .text.serial_tstc
                0x0000000017829264       0x14 drivers/serial/built-in.o
                0x0000000017829264                serial_tstc
 .text.serial_putc
                0x0000000017829278       0x1c drivers/serial/built-in.o
                0x0000000017829278                serial_putc
 .text.serial_puts
                0x0000000017829294       0x1c drivers/serial/built-in.o
                0x0000000017829294                serial_puts
 .text.default_serial_puts
                0x00000000178292b0       0x30 drivers/serial/built-in.o
                0x00000000178292b0                default_serial_puts
 .text.mxc_serial_getc
                0x00000000178292e0       0x24 drivers/serial/built-in.o
 .text.mxc_serial_tstc
                0x0000000017829304       0x18 drivers/serial/built-in.o
 .text.mxc_serial_putc
                0x000000001782931c       0x28 drivers/serial/built-in.o
 .text.mxc_serial_setbrg
                0x0000000017829344       0x48 drivers/serial/built-in.o
 .text.mxc_serial_init
                0x000000001782938c       0x68 drivers/serial/built-in.o
 .text.mxc_serial_initialize
                0x00000000178293f4        0xc drivers/serial/built-in.o
                0x00000000178293f4                mxc_serial_initialize
 .text.default_serial_console
                0x0000000017829400        0xc drivers/serial/built-in.o
                0x0000000017829400                default_serial_console
 .text.spi_do_alloc_slave
                0x000000001782940c       0x4c drivers/spi/built-in.o
                0x000000001782940c                spi_do_alloc_slave
 .text.spi_cs_activate
                0x0000000017829458       0x18 drivers/spi/built-in.o
                0x0000000017829458                spi_cs_activate
 .text.spi_cs_deactivate
                0x0000000017829470       0x20 drivers/spi/built-in.o
                0x0000000017829470                spi_cs_deactivate
 .text.spi_xchg_single
                0x0000000017829490      0x1d4 drivers/spi/built-in.o
                0x0000000017829490                spi_xchg_single
 .text.spi_xfer
                0x0000000017829664       0xb0 drivers/spi/built-in.o
                0x0000000017829664                spi_xfer
 .text.spi_setup_slave
                0x0000000017829714       0xe0 drivers/spi/built-in.o
                0x0000000017829714                spi_setup_slave
 .text.spi_free_slave
                0x00000000178297f4        0x4 drivers/spi/built-in.o
                0x00000000178297f4                spi_free_slave
 .text.spi_claim_bus
                0x00000000178297f8      0x180 drivers/spi/built-in.o
                0x00000000178297f8                spi_claim_bus
 .text.spi_release_bus
                0x0000000017829978        0x4 drivers/spi/built-in.o
                0x0000000017829978                spi_release_bus
 .text.usb_host_eth_scan
                0x000000001782997c      0x1a8 drivers/usb/eth/built-in.o
                0x000000001782997c                usb_host_eth_scan
 .text.asix_halt
                0x0000000017829b24        0x4 drivers/usb/eth/built-in.o
 .text.asix_send
                0x0000000017829b28       0x98 drivers/usb/eth/built-in.o
 .text.asix_recv
                0x0000000017829bc0      0x110 drivers/usb/eth/built-in.o
 .text.asix_write_cmd.isra.0
                0x0000000017829cd0       0x54 drivers/usb/eth/built-in.o
 .text.asix_write_hwaddr
                0x0000000017829d24       0x4c drivers/usb/eth/built-in.o
 .text.asix_mdio_write
                0x0000000017829d70       0x80 drivers/usb/eth/built-in.o
 .text.asix_sw_reset
                0x0000000017829df0       0x40 drivers/usb/eth/built-in.o
 .text.asix_read_cmd.isra.1
                0x0000000017829e30       0x58 drivers/usb/eth/built-in.o
 .text.asix_mdio_read
                0x0000000017829e88       0x80 drivers/usb/eth/built-in.o
 .text.asix_init
                0x0000000017829f08       0xc0 drivers/usb/eth/built-in.o
 .text.asix_read_rx_ctl
                0x0000000017829fc8       0x40 drivers/usb/eth/built-in.o
 .text.asix_eth_before_probe
                0x000000001782a008       0x14 drivers/usb/eth/built-in.o
                0x000000001782a008                asix_eth_before_probe
 .text.asix_eth_probe
                0x000000001782a01c      0x188 drivers/usb/eth/built-in.o
                0x000000001782a01c                asix_eth_probe
 .text.asix_eth_get_info
                0x000000001782a1a4      0x348 drivers/usb/eth/built-in.o
                0x000000001782a1a4                asix_eth_get_info
 .text.usb_ep_autoconfig
                0x000000001782a4ec      0x1f8 drivers/usb/gadget/built-in.o
                0x000000001782a4ec                usb_ep_autoconfig
 .text.usb_ep_autoconfig_reset
                0x000000001782a6e4       0x38 drivers/usb/gadget/built-in.o
                0x000000001782a6e4                usb_ep_autoconfig_reset
 .text.usb_descriptor_fillbuf
                0x000000001782a71c       0x64 drivers/usb/gadget/built-in.o
                0x000000001782a71c                usb_descriptor_fillbuf
 .text.usb_gadget_get_string
                0x000000001782a780      0x188 drivers/usb/gadget/built-in.o
                0x000000001782a780                usb_gadget_get_string
 .text.ci_ep_disable
                0x000000001782a908       0x10 drivers/usb/gadget/built-in.o
 .text.ci_ep_free_request
                0x000000001782a918       0x4c drivers/usb/gadget/built-in.o
 .text.ci_ep_alloc_request
                0x000000001782a964       0x58 drivers/usb/gadget/built-in.o
 .text.ci_flush_qtd
                0x000000001782a9bc       0x18 drivers/usb/gadget/built-in.o
 .text.ci_flush_qh
                0x000000001782a9d4       0x18 drivers/usb/gadget/built-in.o
 .text.stop_activity
                0x000000001782a9ec       0x8c drivers/usb/gadget/built-in.o
 .text.ep_enable
                0x000000001782aa78       0x50 drivers/usb/gadget/built-in.o
 .text.ci_ep_enable
                0x000000001782aac8       0x64 drivers/usb/gadget/built-in.o
 .text.ci_ep_submit_next_request
                0x000000001782ab2c      0x118 drivers/usb/gadget/built-in.o
 .text.ci_ep_queue
                0x000000001782ac44      0x138 drivers/usb/gadget/built-in.o
 .text.udc_irq  0x000000001782ad7c      0x484 drivers/usb/gadget/built-in.o
                0x000000001782ad7c                udc_irq
 .text.usb_gadget_handle_interrupts
                0x000000001782b200       0x2c drivers/usb/gadget/built-in.o
                0x000000001782b200                usb_gadget_handle_interrupts
 .text.udc_disconnect
                0x000000001782b22c       0x44 drivers/usb/gadget/built-in.o
                0x000000001782b22c                udc_disconnect
 .text.ci_pullup
                0x000000001782b270       0x64 drivers/usb/gadget/built-in.o
 .text.usb_gadget_register_driver
                0x000000001782b2d4      0x22c drivers/usb/gadget/built-in.o
                0x000000001782b2d4                usb_gadget_register_driver
 .text.usb_gadget_unregister_driver
                0x000000001782b500       0x4c drivers/usb/gadget/built-in.o
                0x000000001782b500                usb_gadget_unregister_driver
 .text.count_configs
                0x000000001782b54c       0x68 drivers/usb/gadget/built-in.o
 .text.collect_langs
                0x000000001782b5b4       0x50 drivers/usb/gadget/built-in.o
 .text.composite_setup_complete
                0x000000001782b604        0x4 drivers/usb/gadget/built-in.o
 .text.composite_suspend
                0x000000001782b608       0x80 drivers/usb/gadget/built-in.o
 .text.composite_resume
                0x000000001782b688       0x7c drivers/usb/gadget/built-in.o
 .text.lookup_string
                0x000000001782b704       0x4c drivers/usb/gadget/built-in.o
 .text.composite_unbind
                0x000000001782b750      0x120 drivers/usb/gadget/built-in.o
 .text.g_dnl_unbind
                0x000000001782b870       0x3c drivers/usb/gadget/built-in.o
 .text.composite_bind
                0x000000001782b8ac      0x128 drivers/usb/gadget/built-in.o
 .text.g_dnl_do_config
                0x000000001782b9d4       0x5c drivers/usb/gadget/built-in.o
 .text.reset_config.isra.6
                0x000000001782ba30       0x5c drivers/usb/gadget/built-in.o
 .text.composite_disconnect
                0x000000001782ba8c       0x40 drivers/usb/gadget/built-in.o
 .text.composite_setup
                0x000000001782bacc      0x830 drivers/usb/gadget/built-in.o
 .text.usb_add_function
                0x000000001782c2fc       0xc4 drivers/usb/gadget/built-in.o
                0x000000001782c2fc                usb_add_function
 .text.usb_interface_id
                0x000000001782c3c0       0x28 drivers/usb/gadget/built-in.o
                0x000000001782c3c0                usb_interface_id
 .text.usb_add_config
                0x000000001782c3e8       0xcc drivers/usb/gadget/built-in.o
                0x000000001782c3e8                usb_add_config
 .text.usb_string_id
                0x000000001782c4b4       0x20 drivers/usb/gadget/built-in.o
                0x000000001782c4b4                usb_string_id
 .text.usb_composite_register
                0x000000001782c4d4       0x60 drivers/usb/gadget/built-in.o
                0x000000001782c4d4                usb_composite_register
 .text.usb_composite_unregister
                0x000000001782c534       0x30 drivers/usb/gadget/built-in.o
                0x000000001782c534                usb_composite_unregister
 .text.g_dnl_bind_fixup
                0x000000001782c564        0x8 drivers/usb/gadget/built-in.o
                0x000000001782c564                g_dnl_bind_fixup
 .text.g_dnl_get_board_bcd_device_number
                0x000000001782c56c        0x4 drivers/usb/gadget/built-in.o
                0x000000001782c56c                g_dnl_get_board_bcd_device_number
 .text.g_dnl_bind
                0x000000001782c570      0x15c drivers/usb/gadget/built-in.o
 .text.g_dnl_board_usb_cable_connected
                0x000000001782c6cc        0x8 drivers/usb/gadget/built-in.o
                0x000000001782c6cc                g_dnl_board_usb_cable_connected
 .text.g_dnl_register
                0x000000001782c6d4       0x40 drivers/usb/gadget/built-in.o
                0x000000001782c6d4                g_dnl_register
 .text.g_dnl_unregister
                0x000000001782c714        0xc drivers/usb/gadget/built-in.o
                0x000000001782c714                g_dnl_unregister
 .text.raise_exception
                0x000000001782c720       0x20 drivers/usb/gadget/built-in.o
 .text.ep0_queue
                0x000000001782c740       0x2c drivers/usb/gadget/built-in.o
 .text.bulk_in_complete
                0x000000001782c76c       0x44 drivers/usb/gadget/built-in.o
 .text.bulk_out_complete
                0x000000001782c7b0       0x44 drivers/usb/gadget/built-in.o
 .text.fsg_set_alt
                0x000000001782c7f4       0x20 drivers/usb/gadget/built-in.o
 .text.fsg_disable
                0x000000001782c814       0x14 drivers/usb/gadget/built-in.o
 .text.fsg_setup
                0x000000001782c828       0xf0 drivers/usb/gadget/built-in.o
 .text.fsg_unbind
                0x000000001782c918       0x44 drivers/usb/gadget/built-in.o
 .text.store_cdrom_address
                0x000000001782c95c       0x88 drivers/usb/gadget/built-in.o
 .text.fsg_set_halt.isra.9
                0x000000001782c9e4       0x10 drivers/usb/gadget/built-in.o
 .text.start_transfer.isra.11
                0x000000001782c9f4       0x40 drivers/usb/gadget/built-in.o
 .text.halt_bulk_in_endpoint.isra.16
                0x000000001782ca34       0x38 drivers/usb/gadget/built-in.o
 .text.sleep_thread.isra.19
                0x000000001782ca6c      0x108 drivers/usb/gadget/built-in.o
 .text.do_read  0x000000001782cb74      0x21c drivers/usb/gadget/built-in.o
 .text.do_write
                0x000000001782cd90      0x344 drivers/usb/gadget/built-in.o
 .text.send_status
                0x000000001782d0d4       0xe0 drivers/usb/gadget/built-in.o
 .text.check_command.isra.20
                0x000000001782d1b4      0x17c drivers/usb/gadget/built-in.o
 .text.do_mode_sense.isra.22
                0x000000001782d330      0x188 drivers/usb/gadget/built-in.o
 .text.fsg_add  0x000000001782d4b8      0x278 drivers/usb/gadget/built-in.o
                0x000000001782d4b8                fsg_add
 .text.do_set_interface
                0x000000001782d730      0x250 drivers/usb/gadget/built-in.o
 .text.fsg_main_thread
                0x000000001782d980     0x11d4 drivers/usb/gadget/built-in.o
                0x000000001782d980                fsg_main_thread
 .text.usb_copy_descriptors
                0x000000001782eb54       0x80 drivers/usb/gadget/built-in.o
                0x000000001782eb54                usb_copy_descriptors
 .text.fsg_bind
                0x000000001782ebd4       0xf4 drivers/usb/gadget/built-in.o
 .text.fsg_init
                0x000000001782ecc8       0x14 drivers/usb/gadget/built-in.o
                0x000000001782ecc8                fsg_init
 .text.handshake
                0x000000001782ecdc       0x50 drivers/usb/host/built-in.o
 .text.ehci_shutdown
                0x000000001782ed2c       0xa0 drivers/usb/host/built-in.o
 .text.ehci_td_buffer
                0x000000001782edcc       0x80 drivers/usb/host/built-in.o
 .text.ehci_update_endpt2_dev_n_port.isra.0.part.1
                0x000000001782ee4c       0x44 drivers/usb/host/built-in.o
 .text.ehci_submit_async
                0x000000001782ee90      0x590 drivers/usb/host/built-in.o
 .text.disable_periodic.isra.2
                0x000000001782f420       0x48 drivers/usb/host/built-in.o
 .text.enable_periodic.isra.3
                0x000000001782f468       0x50 drivers/usb/host/built-in.o
 .text.ehci_powerup_fixup
                0x000000001782f4b8        0x8 drivers/usb/host/built-in.o
                0x000000001782f4b8                ehci_powerup_fixup
 .text.ehci_get_portsc_register
                0x000000001782f4c0       0x14 drivers/usb/host/built-in.o
                0x000000001782f4c0                ehci_get_portsc_register
 .text.ehci_submit_root
                0x000000001782f4d4      0x4a8 drivers/usb/host/built-in.o
                0x000000001782f4d4                ehci_submit_root
 .text.usb_lowlevel_stop
                0x000000001782f97c       0x24 drivers/usb/host/built-in.o
                0x000000001782f97c                usb_lowlevel_stop
 .text.usb_lowlevel_init
                0x000000001782f9a0      0x270 drivers/usb/host/built-in.o
                0x000000001782f9a0                usb_lowlevel_init
 .text.submit_bulk_msg
                0x000000001782fc10       0x28 drivers/usb/host/built-in.o
                0x000000001782fc10                submit_bulk_msg
 .text.submit_control_msg
                0x000000001782fc38       0x60 drivers/usb/host/built-in.o
                0x000000001782fc38                submit_control_msg
 .text.create_int_queue
                0x000000001782fc98      0x34c drivers/usb/host/built-in.o
                0x000000001782fc98                create_int_queue
 .text.poll_int_queue
                0x000000001782ffe4       0x88 drivers/usb/host/built-in.o
                0x000000001782ffe4                poll_int_queue
 .text.destroy_int_queue
                0x000000001783006c       0xdc drivers/usb/host/built-in.o
                0x000000001783006c                destroy_int_queue
 .text.submit_int_msg
                0x0000000017830148       0xac drivers/usb/host/built-in.o
                0x0000000017830148                submit_int_msg
 .text.usb_phy_mode
                0x00000000178301f4       0x18 drivers/usb/host/built-in.o
                0x00000000178301f4                usb_phy_mode
 .text.board_usb_phy_mode
                0x000000001783020c        0x4 drivers/usb/host/built-in.o
                0x000000001783020c                board_usb_phy_mode
 .text.ehci_hcd_init
                0x0000000017830210      0x1e0 drivers/usb/host/built-in.o
                0x0000000017830210                ehci_hcd_init
 .text.ehci_hcd_stop
                0x00000000178303f0        0x8 drivers/usb/host/built-in.o
                0x00000000178303f0                ehci_hcd_stop
 .text.fs_probe_unsupported
                0x00000000178303f8       0x18 fs/built-in.o
 .text.fs_ls_unsupported
                0x0000000017830410        0x8 fs/built-in.o
 .text.fs_exists_unsupported
                0x0000000017830418        0x8 fs/built-in.o
 .text.fs_size_unsupported
                0x0000000017830420        0x8 fs/built-in.o
 .text.fs_read_unsupported
                0x0000000017830428        0x8 fs/built-in.o
 .text.fs_write_unsupported
                0x0000000017830430        0x8 fs/built-in.o
 .text.fs_close_unsupported
                0x0000000017830438        0x4 fs/built-in.o
 .text.fs_uuid_unsupported
                0x000000001783043c        0x8 fs/built-in.o
 .text.fs_get_info
                0x0000000017830444       0x34 fs/built-in.o
 .text.fs_close
                0x0000000017830478       0x28 fs/built-in.o
 .text.fs_set_blk_dev
                0x00000000178304a0       0xb4 fs/built-in.o
                0x00000000178304a0                fs_set_blk_dev
 .text.fs_ls    0x0000000017830554       0x3c fs/built-in.o
                0x0000000017830554                fs_ls
 .text.fs_exists
                0x0000000017830590       0x34 fs/built-in.o
                0x0000000017830590                fs_exists
 .text.fs_size  0x00000000178305c4       0x3c fs/built-in.o
                0x00000000178305c4                fs_size
 .text.fs_read  0x0000000017830600       0xa8 fs/built-in.o
                0x0000000017830600                fs_read
 .text.fs_write
                0x00000000178306a8       0x88 fs/built-in.o
                0x00000000178306a8                fs_write
 .text.do_size  0x0000000017830730       0x60 fs/built-in.o
                0x0000000017830730                do_size
 .text.do_load  0x0000000017830790      0x238 fs/built-in.o
                0x0000000017830790                do_load
 .text.do_ls    0x00000000178309c8       0x68 fs/built-in.o
                0x00000000178309c8                do_ls
 .text.file_exists
                0x0000000017830a30       0x2c fs/built-in.o
                0x0000000017830a30                file_exists
 .text.do_save  0x0000000017830a5c      0x184 fs/built-in.o
                0x0000000017830a5c                do_save
 .text.get_fs   0x0000000017830be0        0xc fs/built-in.o
                0x0000000017830be0                get_fs
 .text.ext4fs_free_node
                0x0000000017830bec       0x20 fs/built-in.o
                0x0000000017830bec                ext4fs_free_node
 .text.ext4fs_read_file
                0x0000000017830c0c      0x3a4 fs/built-in.o
                0x0000000017830c0c                ext4fs_read_file
 .text.ext4fs_ls
                0x0000000017830fb0       0x78 fs/built-in.o
                0x0000000017830fb0                ext4fs_ls
 .text.ext4fs_exists
                0x0000000017831028       0x1c fs/built-in.o
                0x0000000017831028                ext4fs_exists
 .text.ext4fs_size
                0x0000000017831044        0x4 fs/built-in.o
                0x0000000017831044                ext4fs_size
 .text.ext4fs_read
                0x0000000017831048       0x64 fs/built-in.o
                0x0000000017831048                ext4fs_read
 .text.ext4fs_probe
                0x00000000178310ac       0x30 fs/built-in.o
                0x00000000178310ac                ext4fs_probe
 .text.ext4_read_file
                0x00000000178310dc       0x7c fs/built-in.o
                0x00000000178310dc                ext4_read_file
 .text.ext4fs_uuid
                0x0000000017831158       0x1c fs/built-in.o
                0x0000000017831158                ext4fs_uuid
 .text.ext4fs_div_roundup
                0x0000000017831174       0x20 fs/built-in.o
                0x0000000017831174                ext4fs_div_roundup
 .text.put_ext4
                0x0000000017831194      0x1a8 fs/built-in.o
                0x0000000017831194                put_ext4
 .text.ext4fs_set_block_bmap
                0x000000001783133c       0xb0 fs/built-in.o
                0x000000001783133c                ext4fs_set_block_bmap
 .text.ext4fs_reset_block_bmap
                0x00000000178313ec       0x9c fs/built-in.o
                0x00000000178313ec                ext4fs_reset_block_bmap
 .text.ext4fs_set_inode_bmap
                0x0000000017831488       0x74 fs/built-in.o
                0x0000000017831488                ext4fs_set_inode_bmap
 .text.ext4fs_reset_inode_bmap
                0x00000000178314fc       0x70 fs/built-in.o
                0x00000000178314fc                ext4fs_reset_inode_bmap
 .text.ext4fs_checksum_update
                0x000000001783156c       0x60 fs/built-in.o
                0x000000001783156c                ext4fs_checksum_update
 .text.ext4fs_get_new_blk_no
                0x00000000178315cc      0x3a4 fs/built-in.o
                0x00000000178315cc                ext4fs_get_new_blk_no
 .text.ext4fs_get_new_inode_no
                0x0000000017831970      0x380 fs/built-in.o
                0x0000000017831970                ext4fs_get_new_inode_no
 .text.ext4fs_allocate_blocks
                0x0000000017831cf0      0x618 fs/built-in.o
                0x0000000017831cf0                ext4fs_allocate_blocks
 .text.ext4fs_read_inode
                0x0000000017832308      0x134 fs/built-in.o
                0x0000000017832308                ext4fs_read_inode
 .text.ext4fs_iget
                0x000000001783243c       0x30 fs/built-in.o
                0x000000001783243c                ext4fs_iget
 .text.read_allocated_block
                0x000000001783246c      0x94c fs/built-in.o
                0x000000001783246c                read_allocated_block
 .text.ext4fs_update_parent_dentry
                0x0000000017832db8      0x39c fs/built-in.o
                0x0000000017832db8                ext4fs_update_parent_dentry
 .text.search_dir
                0x0000000017833154      0x130 fs/built-in.o
 .text.ext4fs_get_parent_inode_num
                0x0000000017833284      0x408 fs/built-in.o
                0x0000000017833284                ext4fs_get_parent_inode_num
 .text.ext4fs_filename_check
                0x000000001783368c      0x16c fs/built-in.o
                0x000000001783368c                ext4fs_filename_check
 .text.ext4fs_reinit_global
                0x00000000178337f8       0xbc fs/built-in.o
                0x00000000178337f8                ext4fs_reinit_global
 .text.ext4fs_close
                0x00000000178338b4       0x60 fs/built-in.o
                0x00000000178338b4                ext4fs_close
 .text.ext4fs_iterate_dir
                0x0000000017833914      0x2ac fs/built-in.o
                0x0000000017833914                ext4fs_iterate_dir
 .text.ext4fs_find_file1
                0x0000000017833bc0      0x2a4 fs/built-in.o
 .text.ext4fs_find_file
                0x0000000017833e64       0x78 fs/built-in.o
                0x0000000017833e64                ext4fs_find_file
 .text.ext4fs_open
                0x0000000017833edc       0xac fs/built-in.o
                0x0000000017833edc                ext4fs_open
 .text.ext4fs_mount
                0x0000000017833f88       0xc4 fs/built-in.o
                0x0000000017833f88                ext4fs_mount
 .text.ext4fs_set_blk_dev
                0x000000001783404c       0x6c fs/built-in.o
                0x000000001783404c                ext4fs_set_blk_dev
 .text.ext4fs_devread
                0x00000000178340b8      0x24c fs/built-in.o
                0x00000000178340b8                ext4fs_devread
 .text.ext4_read_superblock
                0x0000000017834304       0x3c fs/built-in.o
                0x0000000017834304                ext4_read_superblock
 .text.ext4fs_update
                0x0000000017834340       0xec fs/built-in.o
 .text.ext4fs_get_bgdtable
                0x000000001783442c       0xd4 fs/built-in.o
                0x000000001783442c                ext4fs_get_bgdtable
 .text.ext4fs_deinit
                0x0000000017834500      0x1a4 fs/built-in.o
                0x0000000017834500                ext4fs_deinit
 .text.ext4fs_init
                0x00000000178346a4      0x2bc fs/built-in.o
                0x00000000178346a4                ext4fs_init
 .text.ext4fs_write
                0x0000000017834960     0x12a8 fs/built-in.o
                0x0000000017834960                ext4fs_write
 .text.ext4_write_file
                0x0000000017835c08       0x98 fs/built-in.o
                0x0000000017835c08                ext4_write_file
 .text.ext4fs_dump_metadata
                0x0000000017835ca0       0x58 fs/built-in.o
                0x0000000017835ca0                ext4fs_dump_metadata
 .text.ext4fs_free_journal
                0x0000000017835cf8       0xe8 fs/built-in.o
                0x0000000017835cf8                ext4fs_free_journal
 .text.ext4fs_log_gdt
                0x0000000017835de0       0xcc fs/built-in.o
                0x0000000017835de0                ext4fs_log_gdt
 .text.ext4fs_log_journal
                0x0000000017835eac       0xec fs/built-in.o
                0x0000000017835eac                ext4fs_log_journal
 .text.ext4fs_put_metadata
                0x0000000017835f98       0xbc fs/built-in.o
                0x0000000017835f98                ext4fs_put_metadata
 .text.ext4fs_push_revoke_blk
                0x0000000017836054       0xd8 fs/built-in.o
                0x0000000017836054                ext4fs_push_revoke_blk
 .text.ext4fs_free_revoke_blks
                0x000000001783612c       0x70 fs/built-in.o
                0x000000001783612c                ext4fs_free_revoke_blks
 .text.check_blknr_for_revoke
                0x000000001783619c       0x6c fs/built-in.o
                0x000000001783619c                check_blknr_for_revoke
 .text.recover_transaction
                0x0000000017836208      0x168 fs/built-in.o
                0x0000000017836208                recover_transaction
 .text.print_jrnl_status
                0x0000000017836370       0x18 fs/built-in.o
                0x0000000017836370                print_jrnl_status
 .text.ext4fs_check_journal_state
                0x0000000017836388      0x31c fs/built-in.o
                0x0000000017836388                ext4fs_check_journal_state
 .text.ext4fs_init_journal
                0x00000000178366a4      0x274 fs/built-in.o
                0x00000000178366a4                ext4fs_init_journal
 .text.ext4fs_update_journal
                0x0000000017836918      0x344 fs/built-in.o
                0x0000000017836918                ext4fs_update_journal
 .text.ext2fs_crc16
                0x0000000017836c5c       0x3c fs/built-in.o
                0x0000000017836c5c                ext2fs_crc16
 .text.downcase
                0x0000000017836c98       0x30 fs/built-in.o
 .text.disk_read
                0x0000000017836cc8       0x64 fs/built-in.o
 .text.dirdelim
                0x0000000017836d2c       0x30 fs/built-in.o
 .text.get_fatent
                0x0000000017836d5c      0x154 fs/built-in.o
 .text.mkcksum  0x0000000017836eb0       0x50 fs/built-in.o
 .text.get_cluster
                0x0000000017836f00      0x170 fs/built-in.o
 .text.get_name
                0x0000000017837070       0xac fs/built-in.o
 .text.read_bootsectandvi
                0x000000001783711c      0x128 fs/built-in.o
 .text.slot2str
                0x0000000017837244       0xbc fs/built-in.o
 .text.get_vfatname
                0x0000000017837300      0x1b8 fs/built-in.o
 .text.fat_set_blk_dev
                0x00000000178374b8       0xcc fs/built-in.o
                0x00000000178374b8                fat_set_blk_dev
 .text.do_fat_read_at
                0x0000000017837584      0xc54 fs/built-in.o
                0x0000000017837584                do_fat_read_at
 .text.do_fat_read
                0x00000000178381d8       0x3c fs/built-in.o
                0x00000000178381d8                do_fat_read
 .text.file_fat_detectfs
                0x0000000017838214      0x148 fs/built-in.o
                0x0000000017838214                file_fat_detectfs
 .text.file_fat_ls
                0x000000001783835c       0x2c fs/built-in.o
                0x000000001783835c                file_fat_ls
 .text.fat_exists
                0x0000000017838388       0x44 fs/built-in.o
                0x0000000017838388                fat_exists
 .text.fat_size
                0x00000000178383cc       0x38 fs/built-in.o
                0x00000000178383cc                fat_size
 .text.file_fat_read_at
                0x0000000017838404       0x60 fs/built-in.o
                0x0000000017838404                file_fat_read_at
 .text.fat_read_file
                0x0000000017838464       0x48 fs/built-in.o
                0x0000000017838464                fat_read_file
 .text.fat_close
                0x00000000178384ac        0x4 fs/built-in.o
                0x00000000178384ac                fat_close
 .text.zcalloc  0x00000000178384b0        0x8 lib/built-in.o
                0x00000000178384b0                zcalloc
 .text.zcfree   0x00000000178384b8        0x8 lib/built-in.o
                0x00000000178384b8                zcfree
 .text.inflate_fast
                0x00000000178384c0      0x590 lib/built-in.o
                0x00000000178384c0                inflate_fast
 .text.inflate_table
                0x0000000017838a50      0x548 lib/built-in.o
                0x0000000017838a50                inflate_table
 .text.inflateReset
                0x0000000017838f98       0x78 lib/built-in.o
                0x0000000017838f98                inflateReset
 .text.inflateInit2_
                0x0000000017839010      0x104 lib/built-in.o
                0x0000000017839010                inflateInit2_
 .text.inflateEnd
                0x0000000017839114       0x68 lib/built-in.o
                0x0000000017839114                inflateEnd
 .text.adler32  0x000000001783917c      0x338 lib/built-in.o
                0x000000001783917c                adler32
 .text.inflate  0x00000000178394b4     0x14f0 lib/built-in.o
                0x00000000178394b4                inflate
 .text.fdt_check_header
                0x000000001783a9a4       0x74 lib/built-in.o
                0x000000001783a9a4                fdt_check_header
 .text.fdt_offset_ptr
                0x000000001783aa18       0x4c lib/built-in.o
                0x000000001783aa18                fdt_offset_ptr
 .text.fdt_next_tag
                0x000000001783aa64       0xfc lib/built-in.o
                0x000000001783aa64                fdt_next_tag
 .text._fdt_check_node_offset
                0x000000001783ab60       0x3c lib/built-in.o
                0x000000001783ab60                _fdt_check_node_offset
 .text._fdt_check_prop_offset
                0x000000001783ab9c       0x3c lib/built-in.o
                0x000000001783ab9c                _fdt_check_prop_offset
 .text.fdt_next_node
                0x000000001783abd8       0xb8 lib/built-in.o
                0x000000001783abd8                fdt_next_node
 .text._fdt_find_string
                0x000000001783ac90       0x5c lib/built-in.o
                0x000000001783ac90                _fdt_find_string
 .text.fdt_move
                0x000000001783acec       0x48 lib/built-in.o
                0x000000001783acec                fdt_move
 .text._nextprop
                0x000000001783ad34       0x5c lib/built-in.o
 .text.fdt_string
                0x000000001783ad90       0x14 lib/built-in.o
                0x000000001783ad90                fdt_string
 .text.fdt_get_mem_rsv
                0x000000001783ada4       0x60 lib/built-in.o
                0x000000001783ada4                fdt_get_mem_rsv
 .text.fdt_num_mem_rsv
                0x000000001783ae04       0x3c lib/built-in.o
                0x000000001783ae04                fdt_num_mem_rsv
 .text.fdt_subnode_offset_namelen
                0x000000001783ae40       0xd0 lib/built-in.o
                0x000000001783ae40                fdt_subnode_offset_namelen
 .text.fdt_subnode_offset
                0x000000001783af10       0x30 lib/built-in.o
                0x000000001783af10                fdt_subnode_offset
 .text.fdt_get_name
                0x000000001783af40       0x74 lib/built-in.o
                0x000000001783af40                fdt_get_name
 .text.fdt_first_property_offset
                0x000000001783afb4       0x20 lib/built-in.o
                0x000000001783afb4                fdt_first_property_offset
 .text.fdt_next_property_offset
                0x000000001783afd4       0x20 lib/built-in.o
                0x000000001783afd4                fdt_next_property_offset
 .text.fdt_get_property_by_offset
                0x000000001783aff4       0x54 lib/built-in.o
                0x000000001783aff4                fdt_get_property_by_offset
 .text.fdt_get_property_namelen
                0x000000001783b048       0xb8 lib/built-in.o
                0x000000001783b048                fdt_get_property_namelen
 .text.fdt_get_property
                0x000000001783b100       0x3c lib/built-in.o
                0x000000001783b100                fdt_get_property
 .text.fdt_getprop_namelen
                0x000000001783b13c       0x20 lib/built-in.o
                0x000000001783b13c                fdt_getprop_namelen
 .text.fdt_getprop
                0x000000001783b15c       0x3c lib/built-in.o
                0x000000001783b15c                fdt_getprop
 .text.fdt_get_alias_namelen
                0x000000001783b198       0x48 lib/built-in.o
                0x000000001783b198                fdt_get_alias_namelen
 .text.fdt_path_offset
                0x000000001783b1e0       0xec lib/built-in.o
                0x000000001783b1e0                fdt_path_offset
 .text.fdt_supernode_atdepth_offset
                0x000000001783b2cc       0xb8 lib/built-in.o
                0x000000001783b2cc                fdt_supernode_atdepth_offset
 .text.fdt_node_depth
                0x000000001783b384       0x28 lib/built-in.o
                0x000000001783b384                fdt_node_depth
 .text._fdt_blocks_misordered
                0x000000001783b3ac       0x68 lib/built-in.o
 .text._fdt_splice
                0x000000001783b414       0x78 lib/built-in.o
 .text._fdt_splice_mem_rsv
                0x000000001783b48c       0x58 lib/built-in.o
 .text._fdt_splice_struct
                0x000000001783b4e4       0x4c lib/built-in.o
 .text._fdt_packblocks
                0x000000001783b530       0xa8 lib/built-in.o
 .text._fdt_add_property
                0x000000001783b5d8      0x120 lib/built-in.o
 .text._fdt_rw_check_header
                0x000000001783b6f8       0x60 lib/built-in.o
 .text.fdt_add_mem_rsv
                0x000000001783b758       0x8c lib/built-in.o
                0x000000001783b758                fdt_add_mem_rsv
 .text.fdt_del_mem_rsv
                0x000000001783b7e4       0x5c lib/built-in.o
                0x000000001783b7e4                fdt_del_mem_rsv
 .text.fdt_setprop
                0x000000001783b840       0xcc lib/built-in.o
                0x000000001783b840                fdt_setprop
 .text.fdt_delprop
                0x000000001783b90c       0x64 lib/built-in.o
                0x000000001783b90c                fdt_delprop
 .text.fdt_add_subnode_namelen
                0x000000001783b970       0xf0 lib/built-in.o
                0x000000001783b970                fdt_add_subnode_namelen
 .text.fdt_add_subnode
                0x000000001783ba60       0x30 lib/built-in.o
                0x000000001783ba60                fdt_add_subnode
 .text.fdt_del_node
                0x000000001783ba90       0x60 lib/built-in.o
                0x000000001783ba90                fdt_del_node
 .text.fdt_open_into
                0x000000001783baf0      0x19c lib/built-in.o
                0x000000001783baf0                fdt_open_into
 .text.fdt_strerror
                0x000000001783bc8c       0x58 lib/built-in.o
                0x000000001783bc8c                fdt_strerror
 .text._fdt_node_end_offset
                0x000000001783bce4       0x44 lib/built-in.o
                0x000000001783bce4                _fdt_node_end_offset
 .text.fdt_address_cells
                0x000000001783bd28       0x4c lib/built-in.o
                0x000000001783bd28                fdt_address_cells
 .text.fdt_size_cells
                0x000000001783bd74       0x48 lib/built-in.o
                0x000000001783bd74                fdt_size_cells
 .text.cyg_crc16
                0x000000001783bdbc       0x44 lib/built-in.o
                0x000000001783bdbc                cyg_crc16
 .text.gzalloc  0x000000001783be00       0x10 lib/built-in.o
                0x000000001783be00                gzalloc
 .text.gzfree   0x000000001783be10        0x8 lib/built-in.o
                0x000000001783be10                gzfree
 .text.zunzip   0x000000001783be18      0x128 lib/built-in.o
                0x000000001783be18                zunzip
 .text.gunzip   0x000000001783bf40       0xb8 lib/built-in.o
                0x000000001783bf40                gunzip
 .text.initcall_run_list
                0x000000001783bff8       0x64 lib/built-in.o
                0x000000001783bff8                initcall_run_list
 .text.lmb_add_region
                0x000000001783c05c      0x1a4 lib/built-in.o
 .text.lmb_init
                0x000000001783c200       0x28 lib/built-in.o
                0x000000001783c200                lmb_init
 .text.lmb_add  0x000000001783c228        0x4 lib/built-in.o
                0x000000001783c228                lmb_add
 .text.lmb_free
                0x000000001783c22c      0x104 lib/built-in.o
                0x000000001783c22c                lmb_free
 .text.lmb_reserve
                0x000000001783c330        0x8 lib/built-in.o
                0x000000001783c330                lmb_reserve
 .text.__lmb_alloc_base
                0x000000001783c338      0x130 lib/built-in.o
                0x000000001783c338                __lmb_alloc_base
 .text.lmb_alloc_base
                0x000000001783c468       0x34 lib/built-in.o
                0x000000001783c468                lmb_alloc_base
 .text.lmb_alloc
                0x000000001783c49c        0x8 lib/built-in.o
                0x000000001783c49c                lmb_alloc
 .text.board_lmb_reserve
                0x000000001783c4a4        0x4 lib/built-in.o
                0x000000001783c4a4                board_lmb_reserve
 .text.string_to_ip
                0x000000001783c4a8       0x60 lib/built-in.o
                0x000000001783c4a8                string_to_ip
 .text.qsort    0x000000001783c508       0xdc lib/built-in.o
                0x000000001783c508                qsort
 .text.strcmp_compar
                0x000000001783c5e4        0xc lib/built-in.o
                0x000000001783c5e4                strcmp_compar
 .text.cmpkey   0x000000001783c5f0       0x14 lib/built-in.o
 .text._hdelete.isra.1
                0x000000001783c604       0x50 lib/built-in.o
 .text.drop_var_from_set.part.2
                0x000000001783c654       0x50 lib/built-in.o
 .text.match_string.isra.3
                0x000000001783c6a4       0x60 lib/built-in.o
 .text.hcreate_r
                0x000000001783c704       0xb0 lib/built-in.o
                0x000000001783c704                hcreate_r
 .text.hdestroy_r
                0x000000001783c7b4       0x78 lib/built-in.o
                0x000000001783c7b4                hdestroy_r
 .text.hmatch_r
                0x000000001783c82c       0xa0 lib/built-in.o
                0x000000001783c82c                hmatch_r
 .text.hsearch_r
                0x000000001783c8cc      0x4dc lib/built-in.o
                0x000000001783c8cc                hsearch_r
 .text.hdelete_r
                0x000000001783cda8       0xd8 lib/built-in.o
                0x000000001783cda8                hdelete_r
 .text.hexport_r
                0x000000001783ce80      0x310 lib/built-in.o
                0x000000001783ce80                hexport_r
 .text.himport_r
                0x000000001783d190      0x3c8 lib/built-in.o
                0x000000001783d190                himport_r
 .text.hwalk_r  0x000000001783d558       0x58 lib/built-in.o
                0x000000001783d558                hwalk_r
 .text.display_options
                0x000000001783d5b0       0x20 lib/built-in.o
                0x000000001783d5b0                display_options
 .text.print_size
                0x000000001783d5d0      0x130 lib/built-in.o
                0x000000001783d5d0                print_size
 .text.print_buffer
                0x000000001783d700      0x1b4 lib/built-in.o
                0x000000001783d700                print_buffer
 .text.crc32_no_comp
                0x000000001783d8b4       0xd8 lib/built-in.o
                0x000000001783d8b4                crc32_no_comp
 .text.crc32    0x000000001783d98c       0x14 lib/built-in.o
                0x000000001783d98c                crc32
 .text.crc32_wd
                0x000000001783d9a0        0x4 lib/built-in.o
                0x000000001783d9a0                crc32_wd
 .text.__div64_32
                0x000000001783d9a4       0xd0 lib/built-in.o
                0x000000001783d9a4                __div64_32
 .text.hang     0x000000001783da74       0x1c lib/built-in.o
                0x000000001783da74                hang
 .text.skip_spaces
                0x000000001783da90       0x28 lib/built-in.o
                0x000000001783da90                skip_spaces
 .text.strim    0x000000001783dab8       0x60 lib/built-in.o
                0x000000001783dab8                strim
 .text.strcpy   0x000000001783db18       0x18 lib/built-in.o
                0x000000001783db18                strcpy
 .text.strncpy  0x000000001783db30       0x24 lib/built-in.o
                0x000000001783db30                strncpy
 .text.strcat   0x000000001783db54       0x30 lib/built-in.o
                0x000000001783db54                strcat
 .text.strncat  0x000000001783db84       0x54 lib/built-in.o
                0x000000001783db84                strncat
 .text.strcmp   0x000000001783dbd8       0x28 lib/built-in.o
                0x000000001783dbd8                strcmp
 .text.strncmp  0x000000001783dc00       0x3c lib/built-in.o
                0x000000001783dc00                strncmp
 .text.strchr   0x000000001783dc3c       0x2c lib/built-in.o
                0x000000001783dc3c                strchr
 .text.strlen   0x000000001783dc68       0x20 lib/built-in.o
                0x000000001783dc68                strlen
 .text.strrchr  0x000000001783dc88       0x3c lib/built-in.o
                0x000000001783dc88                strrchr
 .text.strnlen  0x000000001783dcc4       0x2c lib/built-in.o
                0x000000001783dcc4                strnlen
 .text.strdup   0x000000001783dcf0       0x40 lib/built-in.o
                0x000000001783dcf0                strdup
 .text.strspn   0x000000001783dd30       0x3c lib/built-in.o
                0x000000001783dd30                strspn
 .text.strpbrk  0x000000001783dd6c       0x3c lib/built-in.o
                0x000000001783dd6c                strpbrk
 .text.strtok   0x000000001783dda8       0x88 lib/built-in.o
                0x000000001783dda8                strtok
 .text.memset   0x000000001783de30       0x5c lib/built-in.o
                0x000000001783de30                memset
 .text.memcpy   0x000000001783de8c       0x6c lib/built-in.o
                0x000000001783de8c                memcpy
 .text.strlcpy  0x000000001783def8       0x50 lib/built-in.o
                0x000000001783def8                strlcpy
 .text.memmove  0x000000001783df48       0x48 lib/built-in.o
                0x000000001783df48                memmove
 .text.memcmp   0x000000001783df90       0x30 lib/built-in.o
                0x000000001783df90                memcmp
 .text.strstr   0x000000001783dfc0       0x6c lib/built-in.o
                0x000000001783dfc0                strstr
 .text.memchr   0x000000001783e02c       0x30 lib/built-in.o
                0x000000001783e02c                memchr
 .text.udelay   0x000000001783e05c       0x30 lib/built-in.o
                0x000000001783e05c                udelay
 .text.mdelay   0x000000001783e08c       0x24 lib/built-in.o
                0x000000001783e08c                mdelay
 .text.put_dec_trunc
                0x000000001783e0b0       0xd4 lib/built-in.o
 .text.put_dec  0x000000001783e184      0x13c lib/built-in.o
 .text.string.isra.0
                0x000000001783e2c0       0x94 lib/built-in.o
 .text.number.isra.4
                0x000000001783e354      0x250 lib/built-in.o
 .text.vsnprintf_internal.isra.6
                0x000000001783e5a4      0x61c lib/built-in.o
 .text.simple_strtoul
                0x000000001783ebc0       0xb8 lib/built-in.o
                0x000000001783ebc0                simple_strtoul
 .text.strict_strtoul
                0x000000001783ec78       0x78 lib/built-in.o
                0x000000001783ec78                strict_strtoul
 .text.simple_strtol
                0x000000001783ecf0       0x28 lib/built-in.o
                0x000000001783ecf0                simple_strtol
 .text.ustrtoul
                0x000000001783ed18       0x70 lib/built-in.o
                0x000000001783ed18                ustrtoul
 .text.simple_strtoull
                0x000000001783ed88       0xdc lib/built-in.o
                0x000000001783ed88                simple_strtoull
 .text.ustrtoull
                0x000000001783ee64       0x88 lib/built-in.o
                0x000000001783ee64                ustrtoull
 .text.vsprintf
                0x000000001783eeec        0x4 lib/built-in.o
                0x000000001783eeec                vsprintf
 .text.sprintf  0x000000001783eef0       0x28 lib/built-in.o
                0x000000001783eef0                sprintf
 .text.panic    0x000000001783ef18       0x44 lib/built-in.o
                0x000000001783ef18                panic
 .text.simple_itoa
                0x000000001783ef5c       0x54 lib/built-in.o
                0x000000001783ef5c                simple_itoa
 .text.compute_ip_checksum
                0x000000001783efb0       0x68 net/built-in.o
                0x000000001783efb0                compute_ip_checksum
 .text.ip_checksum_ok
                0x000000001783f018       0x1c net/built-in.o
                0x000000001783f018                ip_checksum_ok
 .text.ArpInit  0x000000001783f034       0x50 net/built-in.o
                0x000000001783f034                ArpInit
 .text.arp_raw_request
                0x000000001783f084       0xc0 net/built-in.o
                0x000000001783f084                arp_raw_request
 .text.ArpRequest
                0x000000001783f144       0x84 net/built-in.o
                0x000000001783f144                ArpRequest
 .text.ArpTimeoutCheck
                0x000000001783f1c8       0x7c net/built-in.o
                0x000000001783f1c8                ArpTimeoutCheck
 .text.ArpReceive
                0x000000001783f244      0x1fc net/built-in.o
                0x000000001783f244                ArpReceive
 .text.DhcpOptionsProcess
                0x000000001783f440      0x1f8 net/built-in.o
 .text.DhcpHandler
                0x000000001783f638      0x4ac net/built-in.o
 .text.BootpReset
                0x000000001783fae4       0x44 net/built-in.o
                0x000000001783fae4                BootpReset
 .text.BootpRequest
                0x000000001783fb28      0x294 net/built-in.o
                0x000000001783fb28                BootpRequest
 .text.BootpTimeout
                0x000000001783fdbc       0x68 net/built-in.o
 .text.DhcpRequest
                0x000000001783fe24        0x4 net/built-in.o
                0x000000001783fe24                DhcpRequest
 .text.__def_eth_init
                0x000000001783fe28        0x8 net/built-in.o
 .text.eth_current_changed
                0x000000001783fe30       0x60 net/built-in.o
 .text.eth_parse_enetaddr
                0x000000001783fe90       0x54 net/built-in.o
                0x000000001783fe90                eth_parse_enetaddr
 .text.eth_getenv_enetaddr
                0x000000001783fee4       0x5c net/built-in.o
                0x000000001783fee4                eth_getenv_enetaddr
 .text.eth_setenv_enetaddr
                0x000000001783ff40       0x34 net/built-in.o
                0x000000001783ff40                eth_setenv_enetaddr
 .text.eth_getenv_enetaddr_by_index
                0x000000001783ff74       0x50 net/built-in.o
                0x000000001783ff74                eth_getenv_enetaddr_by_index
 .text.eth_get_dev_by_index
                0x000000001783ffc4       0x40 net/built-in.o
                0x000000001783ffc4                eth_get_dev_by_index
 .text.eth_get_dev_index
                0x0000000017840004       0x1c net/built-in.o
                0x0000000017840004                eth_get_dev_index
 .text.eth_write_hwaddr
                0x0000000017840020      0x230 net/built-in.o
                0x0000000017840020                eth_write_hwaddr
 .text.eth_register
                0x0000000017840250       0x7c net/built-in.o
                0x0000000017840250                eth_register
 .text.eth_unregister
                0x00000000178402cc       0x8c net/built-in.o
                0x00000000178402cc                eth_unregister
 .text.eth_initialize
                0x0000000017840358      0x1bc net/built-in.o
                0x0000000017840358                eth_initialize
 .text.eth_halt
                0x0000000017840514       0x30 net/built-in.o
                0x0000000017840514                eth_halt
 .text.eth_send
                0x0000000017840544       0x38 net/built-in.o
                0x0000000017840544                eth_send
 .text.eth_rx   0x000000001784057c       0x24 net/built-in.o
                0x000000001784057c                eth_rx
 .text.eth_try_another
                0x00000000178405a0       0x84 net/built-in.o
                0x00000000178405a0                eth_try_another
 .text.eth_init
                0x0000000017840624       0xd0 net/built-in.o
                0x0000000017840624                eth_init
 .text.eth_set_current
                0x00000000178406f4       0xa4 net/built-in.o
                0x00000000178406f4                eth_set_current
 .text.eth_get_name
                0x0000000017840798       0x20 net/built-in.o
                0x0000000017840798                eth_get_name
 .text.startAgainTimeout
                0x00000000178407b8       0x14 net/built-in.o
 .text.dummy_handler
                0x00000000178407cc        0x4 net/built-in.o
 .text.net_clear_handlers
                0x00000000178407d0       0x34 net/built-in.o
 .text.net_auto_load
                0x0000000017840804       0x64 net/built-in.o
                0x0000000017840804                net_auto_load
 .text.NetStartAgain
                0x0000000017840868      0x150 net/built-in.o
                0x0000000017840868                NetStartAgain
 .text.net_set_udp_handler
                0x00000000178409b8       0x20 net/built-in.o
                0x00000000178409b8                net_set_udp_handler
 .text.net_get_arp_handler
                0x00000000178409d8       0x10 net/built-in.o
                0x00000000178409d8                net_get_arp_handler
 .text.NetSetTimeout
                0x00000000178409e8       0x5c net/built-in.o
                0x00000000178409e8                NetSetTimeout
 .text.NetReceive
                0x0000000017840a44      0x270 net/built-in.o
                0x0000000017840a44                NetReceive
 .text.NetEthHdrSize
                0x0000000017840cb4       0x38 net/built-in.o
                0x0000000017840cb4                NetEthHdrSize
 .text.NetSetEther
                0x0000000017840cec       0x94 net/built-in.o
                0x0000000017840cec                NetSetEther
 .text.net_update_ether
                0x0000000017840d80       0x78 net/built-in.o
                0x0000000017840d80                net_update_ether
 .text.net_set_ip_header
                0x0000000017840df8       0x88 net/built-in.o
                0x0000000017840df8                net_set_ip_header
 .text.net_set_udp_header
                0x0000000017840e80       0x84 net/built-in.o
                0x0000000017840e80                net_set_udp_header
 .text.NetSendUDPPacket
                0x0000000017840f04      0x10c net/built-in.o
                0x0000000017840f04                NetSendUDPPacket
 .text.copy_filename
                0x0000000017841010       0x44 net/built-in.o
                0x0000000017841010                copy_filename
 .text.on_bootfile
                0x0000000017841054       0x2c net/built-in.o
 .text.ip_to_string
                0x0000000017841080       0x38 net/built-in.o
                0x0000000017841080                ip_to_string
 .text.string_to_VLAN
                0x00000000178410b8       0x44 net/built-in.o
                0x00000000178410b8                string_to_VLAN
 .text.getenv_VLAN
                0x00000000178410fc       0x10 net/built-in.o
                0x00000000178410fc                getenv_VLAN
 .text.NetInitLoop
                0x000000001784110c       0xf0 net/built-in.o
 .text.net_init
                0x00000000178411fc       0x70 net/built-in.o
                0x00000000178411fc                net_init
 .text.NetLoop  0x000000001784126c      0x34c net/built-in.o
                0x000000001784126c                NetLoop
 .text.rpc_lookup_reply
                0x00000000178415b8       0xb0 net/built-in.o
 .text.nfs_mount_reply
                0x0000000017841668       0xa8 net/built-in.o
 .text.nfs_umountall_reply
                0x0000000017841710       0x98 net/built-in.o
 .text.nfs_lookup_reply
                0x00000000178417a8       0x98 net/built-in.o
 .text.nfs_readlink_reply
                0x0000000017841840       0xf8 net/built-in.o
 .text.basename
                0x0000000017841938       0x3c net/built-in.o
 .text.rpc_add_credentials
                0x0000000017841974       0xb4 net/built-in.o
 .text.rpc_req  0x0000000017841a28       0xf8 net/built-in.o
 .text.nfs_mount_req
                0x0000000017841b20       0x94 net/built-in.o
 .text.nfs_umountall_req
                0x0000000017841bb4       0x60 net/built-in.o
 .text.nfs_lookup_req
                0x0000000017841c14       0xa8 net/built-in.o
 .text.nfs_read_req
                0x0000000017841cbc       0x78 net/built-in.o
 .text.nfs_readlink_req
                0x0000000017841d34       0x58 net/built-in.o
 .text.nfs_read_reply.isra.0
                0x0000000017841d8c      0x138 net/built-in.o
 .text.NfsSend  0x0000000017841ec4      0x114 net/built-in.o
 .text.NfsHandler
                0x0000000017841fd8      0x224 net/built-in.o
 .text.NfsTimeout
                0x00000000178421fc       0x64 net/built-in.o
 .text.NfsStart
                0x0000000017842260      0x254 net/built-in.o
                0x0000000017842260                NfsStart
 .text.ping_timeout
                0x00000000178424b4       0x1c net/built-in.o
 .text.ping_start
                0x00000000178424d0      0x118 net/built-in.o
                0x00000000178424d0                ping_start
 .text.ping_receive
                0x00000000178425e8       0xdc net/built-in.o
                0x00000000178425e8                ping_receive
 .text.TftpSend
                0x00000000178426c4      0x1c8 net/built-in.o
 .text.TftpHandler
                0x000000001784288c      0x378 net/built-in.o
 .text.TftpTimeout
                0x0000000017842c04       0x88 net/built-in.o
 .text.TftpStart
                0x0000000017842c8c      0x33c net/built-in.o
                0x0000000017842c8c                TftpStart
 .text.do_dm    0x0000000017842fc8       0x6c test/dm/built-in.o
 .text.do_dm_dump_uclass
                0x0000000017843034       0xd0 test/dm/built-in.o
 .text.show_devices
                0x0000000017843104       0xfc test/dm/built-in.o
 .text.do_dm_dump_all
                0x0000000017843200       0x40 test/dm/built-in.o
 .text.raise    0x0000000017843240       0x1c arch/arm/lib/eabi_compat.o
                0x0000000017843240                raise
 .text          0x000000001784325c       0xc8 /home/angel/bombardier-bsp/emsv5board/tmp/sysroots/ems_v5/usr/lib/arm-poky-linux-gnueabi/4.9.2/libgcc.a(_udivsi3.o)
                0x000000001784325c                __udivsi3
                0x000000001784325c                __aeabi_uidiv
                0x0000000017843304                __aeabi_uidivmod
 .text          0x0000000017843324       0xfc /home/angel/bombardier-bsp/emsv5board/tmp/sysroots/ems_v5/usr/lib/arm-poky-linux-gnueabi/4.9.2/libgcc.a(_divsi3.o)
                0x0000000017843324                __aeabi_idiv
                0x0000000017843324                __divsi3
                0x0000000017843400                __aeabi_idivmod
 .text          0x0000000017843420       0x1c /home/angel/bombardier-bsp/emsv5board/tmp/sysroots/ems_v5/usr/lib/arm-poky-linux-gnueabi/4.9.2/libgcc.a(_lshrdi3.o)
                0x0000000017843420                __aeabi_llsr
                0x0000000017843420                __lshrdi3
 .text          0x000000001784343c       0x1c /home/angel/bombardier-bsp/emsv5board/tmp/sysroots/ems_v5/usr/lib/arm-poky-linux-gnueabi/4.9.2/libgcc.a(_ashldi3.o)
                0x000000001784343c                __ashldi3
                0x000000001784343c                __aeabi_llsl
 .text          0x0000000017843458       0x10 /home/angel/bombardier-bsp/emsv5board/tmp/sysroots/ems_v5/usr/lib/arm-poky-linux-gnueabi/4.9.2/libgcc.a(_dvmd_lnx.o)
                0x0000000017843458                __aeabi_ldiv0
                0x0000000017843458                __aeabi_idiv0

.glue_7         0x0000000017843468        0x0
 .glue_7        0x0000000000000000        0x0 linker stubs

.glue_7t        0x0000000017843468        0x0
 .glue_7t       0x0000000000000000        0x0 linker stubs

.vfp11_veneer   0x0000000017843468        0x0
 .vfp11_veneer  0x0000000000000000        0x0 linker stubs

.v4_bx          0x0000000017843468        0x0
 .v4_bx         0x0000000000000000        0x0 linker stubs

.iplt           0x0000000017843468        0x0
 .iplt          0x0000000000000000        0x0 arch/arm/cpu/armv7/start.o
                0x0000000017843468                . = ALIGN (0x4)

.rodata         0x0000000017843468     0xfae2
 *(SORT(.rodata*))
 .rodata.ecspi3_pads
                0x0000000017843468       0x20 board/freescale/mx6sabresd/built-in.o
 .rodata.enet_pads
                0x0000000017843488       0x80 board/freescale/mx6sabresd/built-in.o
 .rodata.pcie_pads
                0x0000000017843508       0x10 board/freescale/mx6sabresd/built-in.o
                0x0000000017843508                pcie_pads
 .rodata.rgb_pads
                0x0000000017843518       0xf0 board/freescale/mx6sabresd/built-in.o
 .rodata.uart2_pads
                0x0000000017843608       0x10 board/freescale/mx6sabresd/built-in.o
 .rodata.uart3_pads
                0x0000000017843618       0x10 board/freescale/mx6sabresd/built-in.o
 .rodata.usb_hc1_pads
                0x0000000017843628        0x8 board/freescale/mx6sabresd/built-in.o
 .rodata.usb_otg_pads
                0x0000000017843630       0x10 board/freescale/mx6sabresd/built-in.o
 .rodata.usdhc2_pads
                0x0000000017843640       0x58 board/freescale/mx6sabresd/built-in.o
 .rodata.usdhc3_pads
                0x0000000017843698       0x58 board/freescale/mx6sabresd/built-in.o
 .rodata        0x00000000178436f0       0x80 arch/arm/lib/built-in.o
 .rodata        0x0000000017843770        0xc drivers/power/built-in.o
 .rodata.CSWTCH.13
                0x000000001784377c       0x54 arch/arm/imx-common/built-in.o
 .rodata.CSWTCH.14
                0x00000000178437d0       0x44 drivers/built-in.o
 .rodata.CSWTCH.27
                0x0000000017843814       0x14 common/built-in.o
 .rodata.CSWTCH.28
                0x0000000017843828       0x20 common/built-in.o
 .rodata.asix_dongles
                0x0000000017843848       0x68 drivers/usb/eth/built-in.o
 .rodata.block_drvr
                0x00000000178438b0       0x24 disk/built-in.o
 .rodata.board_boot_modes
                0x00000000178438d4       0x18 board/freescale/mx6sabresd/built-in.o
 .rodata.boot_os
                0x00000000178438ec       0x60 common/built-in.o
 .rodata.ci_ep_init
                0x000000001784394c       0x30 drivers/usb/gadget/built-in.o
 .rodata.cpu_ctrl_mask
                0x000000001784397c       0x10 arch/arm/cpu/armv7/built-in.o
 .rodata.cpu_reset_mask
                0x000000001784398c       0x10 arch/arm/cpu/armv7/built-in.o
 .rodata.crc_table
                0x000000001784399c      0x400 lib/built-in.o
 .rodata.data_abort_bounce_handler.7398
                0x0000000017843d9c        0x4 drivers/pci/built-in.o
 .rodata.desc_and_len_tbl
                0x0000000017843da0       0x30 common/built-in.o
 .rodata.displays
                0x0000000017843dd0       0xe4 board/freescale/mx6sabresd/built-in.o
                0x0000000017843dd0                displays
 .rodata.dp_csc_array
                0x0000000017843eb4       0xc8 drivers/built-in.o
 .rodata.env_flags_varaccess_mask
                0x0000000017843f7c       0x10 common/built-in.o
 .rodata.esdhc_ops
                0x0000000017843f8c       0x14 drivers/mmc/built-in.o
 .rodata.ext_csd_bits.7141
                0x0000000017843fa0       0x14 drivers/mmc/built-in.o
 .rodata.ext_to_hostcaps.7142
                0x0000000017843fb4       0x1c drivers/mmc/built-in.o
 .rodata.fbase  0x0000000017843fd0       0x10 drivers/mmc/built-in.o
 .rodata.fdt_errtable
                0x0000000017843fe0       0x34 lib/built-in.o
 .rodata.gpio_ports
                0x0000000017844014       0x1c drivers/gpio/built-in.o
 .rodata.i2c_bases
                0x0000000017844030       0x10 arch/arm/imx-common/built-in.o
 .rodata.i2c_bases
                0x0000000017844040       0x10 drivers/i2c/built-in.o
 .rodata.imx6_thermal_plat
                0x0000000017844050        0xc arch/arm/cpu/armv7/built-in.o
 .rodata.imx_thermal_ops
                0x000000001784405c        0x4 drivers/built-in.o
 .rodata.multipliers
                0x0000000017844060       0x40 drivers/mmc/built-in.o
 .rodata.op_adv
                0x00000000178440a0      0x100 common/built-in.o
                0x00000000178440a0                op_adv
 .rodata.op_table
                0x00000000178441a0       0x68 common/built-in.o
 .rodata.phy_bases
                0x0000000017844208        0x8 drivers/usb/host/built-in.o
 .rodata.prob_dev
                0x0000000017844210       0x18 drivers/usb/eth/built-in.o
 .rodata.reg_0_5_desc_tbl
                0x0000000017844228       0x30 common/built-in.o
 .rodata.reg_0_desc_tbl
                0x0000000017844258       0x78 common/built-in.o
 .rodata.reg_1_desc_tbl
                0x00000000178442d0       0xc0 common/built-in.o
 .rodata.reg_2_desc_tbl
                0x0000000017844390        0xc common/built-in.o
 .rodata.reg_3_desc_tbl
                0x000000001784439c       0x24 common/built-in.o
 .rodata.reg_4_desc_tbl
                0x00000000178443c0       0x90 common/built-in.o
 .rodata.reg_5_desc_tbl
                0x0000000017844450       0x90 common/built-in.o
 .rodata.rgb2ycbcr_coeff
                0x00000000178444e0       0x3c drivers/built-in.o
 .rodata.root_info
                0x000000001784451c        0x8 drivers/built-in.o
 .rodata.soc_boot_modes
                0x0000000017844524       0x60 arch/arm/cpu/armv7/built-in.o
                0x0000000017844524                soc_boot_modes
 .rodata.spi_bases
                0x0000000017844584       0x14 drivers/spi/built-in.o
 .rodata.spi_flash_params_table
                0x0000000017844598      0x120 drivers/mtd/spi/built-in.o
                0x0000000017844598                spi_flash_params_table
 .rodata.uimage_arch
                0x00000000178446b8      0x12c common/built-in.o
 .rodata.uimage_comp
                0x00000000178447e4       0x48 common/built-in.o
 .rodata.uimage_os
                0x000000001784482c       0x6c common/built-in.o
 .rodata.uimage_type
                0x0000000017844898      0x114 common/built-in.o
 .rodata.video_font_draw_table15
                0x00000000178449ac       0x10 drivers/built-in.o
 .rodata.video_font_draw_table16
                0x00000000178449bc       0x10 drivers/built-in.o
 .rodata.video_font_draw_table24
                0x00000000178449cc       0xc0 drivers/built-in.o
 .rodata.video_font_draw_table32
                0x0000000017844a8c      0x100 drivers/built-in.o
 .rodata.video_font_draw_table8
                0x0000000017844b8c       0x40 drivers/built-in.o
 .rodata.widths.7143
                0x0000000017844bcc       0x14 drivers/mmc/built-in.o
 .rodata.ycbcr2rgb_coeff
                0x0000000017844be0       0x3c drivers/built-in.o
 .rodata.crc16_tab
                0x0000000017844c1c      0x200 lib/built-in.o
 .rodata.crc16_table
                0x0000000017844e1c      0x200 fs/built-in.o
 .rodata.dbase.6977
                0x000000001784501c       0x40 lib/built-in.o
 .rodata.dext.6978
                0x000000001784505c       0x40 lib/built-in.o
 .rodata.distfix
                0x000000001784509c       0x80 lib/built-in.o
 .rodata.i2c_clk_div
                0x000000001784511c       0xc8 drivers/i2c/built-in.o
 .rodata.lbase.6975
                0x00000000178451e4       0x3e lib/built-in.o
 .rodata.lenfix
                0x0000000017845222      0x800 lib/built-in.o
 .rodata.lext.6976
                0x0000000017845a22       0x3e lib/built-in.o
 .rodata.order.7071
                0x0000000017845a60       0x26 lib/built-in.o
 .rodata        0x0000000017845a86        0x3 common/built-in.o
 .rodata        0x0000000017845a89       0x3f drivers/usb/host/built-in.o
 .rodata        0x0000000017845ac8        0xe net/built-in.o
 .rodata.CSWTCH.66
                0x0000000017845ad6       0x16 common/built-in.o
 .rodata.__FUNCTION__.7909
                0x0000000017845aec       0x17 common/built-in.o
 .rodata.__FUNCTION__.9367
                0x0000000017845b03       0x11 drivers/usb/gadget/built-in.o
 .rodata.__func__.6829
                0x0000000017845b14        0xa drivers/built-in.o
 .rodata.__func__.6839
                0x0000000017845b1e       0x16 arch/arm/cpu/armv7/built-in.o
 .rodata.__func__.6849
                0x0000000017845b34       0x1b arch/arm/lib/built-in.o
 .rodata.__func__.6858
                0x0000000017845b4f        0xb drivers/built-in.o
 .rodata.__func__.6876
                0x0000000017845b5a        0xa drivers/built-in.o
 .rodata.__func__.6886
                0x0000000017845b64        0xe drivers/built-in.o
 .rodata.__func__.6889
                0x0000000017845b72        0xf drivers/power/built-in.o
 .rodata.__func__.6897
                0x0000000017845b81        0xf arch/arm/imx-common/built-in.o
 .rodata.__func__.6902
                0x0000000017845b90        0xe drivers/power/built-in.o
 .rodata.__func__.6999
                0x0000000017845b9e        0xf fs/built-in.o
 .rodata.__func__.7005
                0x0000000017845bad       0x12 drivers/i2c/built-in.o
 .rodata.__func__.7020
                0x0000000017845bbf       0x10 common/built-in.o
 .rodata.__func__.7030
                0x0000000017845bcf        0xd drivers/i2c/built-in.o
 .rodata.__func__.7035
                0x0000000017845bdc       0x13 fs/built-in.o
 .rodata.__func__.7036
                0x0000000017845bef        0xb common/built-in.o
 .rodata.__func__.7043
                0x0000000017845bfa        0xb common/built-in.o
 .rodata.__func__.7044
                0x0000000017845c05       0x14 fs/built-in.o
 .rodata.__func__.7068
                0x0000000017845c19       0x12 drivers/i2c/built-in.o
 .rodata.__func__.7365
                0x0000000017845c2b        0xe common/built-in.o
 .rodata.__func__.7366
                0x0000000017845c39       0x19 common/built-in.o
 .rodata.__func__.7375
                0x0000000017845c52       0x1c fs/built-in.o
 .rodata.__func__.7402
                0x0000000017845c6e        0xe common/built-in.o
 .rodata.__func__.7419
                0x0000000017845c7c        0xd drivers/built-in.o
 .rodata.__func__.7671
                0x0000000017845c89       0x11 drivers/usb/host/built-in.o
 .rodata.__func__.7703
                0x0000000017845c9a       0x14 common/built-in.o
 .rodata.__func__.7732
                0x0000000017845cae        0xe common/built-in.o
 .rodata.__func__.7791
                0x0000000017845cbc       0x18 common/built-in.o
 .rodata.__func__.7893
                0x0000000017845cd4        0xe drivers/built-in.o
 .rodata.__func__.7921
                0x0000000017845ce2       0x10 drivers/net/built-in.o
 .rodata.__func__.7946
                0x0000000017845cf2        0xc drivers/usb/gadget/built-in.o
 .rodata.__func__.8008
                0x0000000017845cfe       0x13 drivers/built-in.o
 .rodata.__func__.8017
                0x0000000017845d11       0x11 drivers/built-in.o
 .rodata.__func__.8025
                0x0000000017845d22        0xd drivers/built-in.o
 .rodata.__func__.9495
                0x0000000017845d2f        0xf drivers/usb/gadget/built-in.o
 .rodata._ctype
                0x0000000017845d3e      0x100 lib/built-in.o
                0x0000000017845d3e                _ctype
 .rodata.bank_lookup
                0x0000000017845e3e        0x2 arch/arm/imx-common/built-in.o
 .rodata.col_lookup
                0x0000000017845e40        0x8 arch/arm/imx-common/built-in.o
 .rodata.default_environment
                0x0000000017845e48      0xa13 common/built-in.o
                0x0000000017845e48                default_environment
 .rodata.delims.6688
                0x000000001784685b        0x3 common/built-in.o
 .rodata.digits.6685
                0x000000001784685e       0x10 lib/built-in.o
 .rodata.dirletter.7957
                0x000000001784686e        0x4 drivers/usb/gadget/built-in.o
 .rodata.env_flags_varaccess_rep
                0x0000000017846872        0x5 common/built-in.o
 .rodata.env_flags_vartype_rep
                0x0000000017846877        0x7 common/built-in.o
 .rodata.erase_seq
                0x000000001784687e        0x4 common/built-in.o
 .rodata.fsg_string_interface
                0x0000000017846882        0xd drivers/usb/gadget/built-in.o
 .rodata.hex_asc
                0x000000001784688f       0x11 lib/built-in.o
 .rodata.manufacturer
                0x00000000178468a0        0x4 drivers/usb/gadget/built-in.o
 .rodata.names.6727
                0x00000000178468a4        0x6 lib/built-in.o
 .rodata.product
                0x00000000178468aa       0x14 drivers/usb/gadget/built-in.o
 .rodata.spi_read_cmds_array
                0x00000000178468be        0x6 drivers/mtd/spi/built-in.o
 .rodata.str1.1
                0x00000000178468c4      0x238 arch/arm/cpu/armv7/built-in.o
                                        0x242 (size before relaxing)
 .rodata.str1.1
                0x0000000017846afc      0x29b arch/arm/imx-common/built-in.o
                                        0x2bd (size before relaxing)
 .rodata.str1.1
                0x0000000017846d97      0x389 arch/arm/lib/built-in.o
                                        0x42c (size before relaxing)
 .rodata.str1.1
                0x0000000017847120       0x75 board/freescale/mx6sabresd/built-in.o
 .rodata.str1.1
                0x0000000017847195     0x82ee common/built-in.o
                                       0x8ace (size before relaxing)
 .rodata.str1.1
                0x000000001784f483      0x436 disk/built-in.o
                                        0x469 (size before relaxing)
 .rodata.str1.1
                0x000000001784f8b9      0x7b8 drivers/built-in.o
                                        0x7d8 (size before relaxing)
 .rodata.str1.1
                0x0000000017850071       0xf2 drivers/i2c/built-in.o
 .rodata.str1.1
                0x0000000017850163      0x4aa drivers/mmc/built-in.o
                                        0x50d (size before relaxing)
 .rodata.str1.1
                0x000000001785060d      0x1bc drivers/mtd/spi/built-in.o
                                        0x1bf (size before relaxing)
 .rodata.str1.1
                0x00000000178507c9      0x166 drivers/net/built-in.o
                                        0x16e (size before relaxing)
 .rodata.str1.1
                0x000000001785092f      0x152 drivers/net/phy/built-in.o
                                        0x154 (size before relaxing)
 .rodata.str1.1
                0x0000000017850a81      0x334 drivers/pci/built-in.o
                                        0x338 (size before relaxing)
 .rodata.str1.1
                0x0000000017850db5      0x25d drivers/power/built-in.o
                                        0x26f (size before relaxing)
 .rodata.str1.1
                0x0000000017851012       0x57 drivers/serial/built-in.o
                                         0x92 (size before relaxing)
 .rodata.str1.1
                0x0000000017851069       0xdc drivers/spi/built-in.o
 .rodata.str1.1
                0x0000000017851145       0xeb drivers/usb/eth/built-in.o
 .rodata.str1.1
                0x0000000017851230      0x165 drivers/usb/gadget/built-in.o
                                        0x1a1 (size before relaxing)
 .rodata.str1.1
                0x0000000017851395      0x237 drivers/usb/host/built-in.o
 .rodata.str1.1
                0x00000000178515cc      0x92d fs/built-in.o
                                        0x9bf (size before relaxing)
 .rodata.str1.1
                0x0000000017851ef9      0x712 lib/built-in.o
                                        0x767 (size before relaxing)
 .rodata.str1.1
                0x000000001785260b      0x7cc net/built-in.o
                                        0x949 (size before relaxing)
 .rodata.str1.1
                0x0000000017852dd7       0xf0 test/dm/built-in.o
                                        0x132 (size before relaxing)
 .rodata.str1.1
                0x0000000017852ec7       0x1b arch/arm/lib/eabi_compat.o
 .rodata.tab_seq
                0x0000000017852ee2        0x9 common/built-in.o
 .rodata.us_direction
                0x0000000017852eeb       0x20 common/built-in.o
 .rodata.vendor_id.7808
                0x0000000017852f0b        0x9 drivers/usb/gadget/built-in.o
 .rodata.version_string
                0x0000000017852f14       0x36 common/built-in.o
                0x0000000017852f14                version_string

.hash           0x0000000017852f4c       0x2c
 .hash          0x0000000017852f4c       0x2c arch/arm/cpu/armv7/start.o
                0x0000000017852f78                . = ALIGN (0x4)

.data           0x0000000017852f78     0xec78
 *(.data*)
 .data.imx_ccm  0x0000000017852f78        0x4 arch/arm/cpu/armv7/built-in.o
                0x0000000017852f78                imx_ccm
 .data.reset_cause
                0x0000000017852f7c        0x4 arch/arm/imx-common/built-in.o
 .data.i2c_pad_info1
                0x0000000017852f80       0x30 board/freescale/mx6sabresd/built-in.o
 .data.usdhc_cfg
                0x0000000017852fb0       0x58 board/freescale/mx6sabresd/built-in.o
                0x0000000017852fb0                usdhc_cfg
 .data.display_count
                0x0000000017853008        0x4 board/freescale/mx6sabresd/built-in.o
                0x0000000017853008                display_count
 .data.reserved_list
                0x000000001785300c       0x84 common/built-in.o
 .data.init_sequence_f
                0x0000000017853090       0x9c common/built-in.o
 .data.init_sequence_r
                0x000000001785312c       0x68 common/built-in.o
                0x000000001785312c                init_sequence_r
 .data.bootm_help_text
                0x0000000017853194      0x38b common/built-in.o
 *fill*         0x000000001785351f        0x1 
 .data.cmd_bootm_sub
                0x0000000017853520       0xfc common/built-in.o
 .data.bootz_help_text
                0x000000001785361c      0x208 common/built-in.o
 .data.first_call
                0x0000000017853824        0x8 common/built-in.o
 .data.env_name_spec
                0x000000001785382c        0x4 common/built-in.o
                0x000000001785382c                env_name_spec
 .data.source_help_text
                0x0000000017853830       0x4e common/built-in.o
 .data.tabs.7835
                0x000000001785387e       0x21 common/built-in.o
 .data.fdt_help_text
                0x000000001785389f      0x5e3 common/built-in.o
 .data.root.7752
                0x0000000017853e82        0x2 common/built-in.o
 .data.i2c_help_text
                0x0000000017853e84      0x37c common/built-in.o
 .data.cmd_i2c_sub
                0x0000000017854200      0x16c common/built-in.o
 .data.i2c_dp_last_length
                0x000000001785436c        0x4 common/built-in.o
 .data.do_echo  0x0000000017854370        0x4 common/built-in.o
 .data.dp_last_length
                0x0000000017854374        0x4 common/built-in.o
 .data.curr_device
                0x0000000017854378        0x4 common/built-in.o
 .data.cmd_mmc  0x000000001785437c      0x188 common/built-in.o
 .data.cpu_help_text
                0x0000000017854504       0xe2 common/built-in.o
 .data.pci_help_text
                0x00000000178545e6      0x1cb common/built-in.o
 *fill*         0x00000000178547b1        0x3 
 .data.usb_ether_curr_dev
                0x00000000178547b4        0x4 common/built-in.o
 .data.usb_stor_curr_dev
                0x00000000178547b8        0x4 common/built-in.o
 .data.ums_dev  0x00000000178547bc       0x18 common/built-in.o
 .data.imgextract_help_text
                0x00000000178547d4       0x55 common/built-in.o
 .data.env_help_text
                0x0000000017854829      0x24f common/built-in.o
 .data.env_id   0x0000000017854a78        0x4 common/built-in.o
 .data.cmd_env_sub
                0x0000000017854a7c      0x118 common/built-in.o
 .data.env_htab
                0x0000000017854b94       0x10 common/built-in.o
                0x0000000017854b94                env_htab
 .data.av_      0x0000000017854ba4      0x408 common/built-in.o
 .data.sbrk_base
                0x0000000017854fac        0x4 common/built-in.o
 .data.trim_threshold
                0x0000000017854fb0        0x4 common/built-in.o
 .data.load_addr
                0x0000000017854fb4        0x4 common/built-in.o
                0x0000000017854fb4                load_addr
 .data.stdio_names
                0x0000000017854fb8        0xc common/built-in.o
                0x0000000017854fb8                stdio_names
 .data.hist_cur
                0x0000000017854fc4        0x4 common/built-in.o
 .data.video_logo_height
                0x0000000017854fc8        0x4 drivers/built-in.o
 .data.nl.6909  0x0000000017854fcc        0x4 drivers/built-in.o
 .data.bmp_logo_bitmap
                0x0000000017854fd0     0xb600 drivers/built-in.o
                0x0000000017854fd0                bmp_logo_bitmap
 .data.video_fontdata
                0x00000000178605d0     0x1000 drivers/built-in.o
 .data.bmp_logo_palette
                0x00000000178615d0       0x2e drivers/built-in.o
                0x00000000178615d0                bmp_logo_palette
 *fill*         0x00000000178615fe        0x2 
 .data.ldb_clk  0x0000000017861600       0x38 drivers/built-in.o
 .data.ipu_clk  0x0000000017861638       0x38 drivers/built-in.o
 .data.pixel_clk
                0x0000000017861670       0x70 drivers/built-in.o
 .data.bg_csc_type
                0x00000000178616e0        0x4 drivers/built-in.o
 .data.fg_csc_type
                0x00000000178616e4        0x4 drivers/built-in.o
 .data.color_key_4rgb
                0x00000000178616e8        0x4 drivers/built-in.o
 .data.cur_dev_num
                0x00000000178616ec        0x4 drivers/mmc/built-in.o
 .data.phy_drivers
                0x00000000178616f0        0x8 drivers/net/phy/built-in.o
 .data.genphy_driver
                0x00000000178616f8       0x34 drivers/net/phy/built-in.o
 .data.ksz8895_driver
                0x000000001786172c       0x34 drivers/net/phy/built-in.o
 .data.KSZ804_driver
                0x0000000017861760       0x34 drivers/net/phy/built-in.o
 .data.ksz9021_driver
                0x0000000017861794       0x34 drivers/net/phy/built-in.o
 .data.ksz9031_driver
                0x00000000178617c8       0x34 drivers/net/phy/built-in.o
 .data.pmic_list
                0x00000000178617fc        0x8 drivers/power/built-in.o
 .data.mxc_serial_drv
                0x0000000017861804       0x30 drivers/serial/built-in.o
 .data.ci_ep_ops
                0x0000000017861834       0x24 drivers/usb/gadget/built-in.o
 .data.ep0_desc
                0x0000000017861858        0x9 drivers/usb/gadget/built-in.o
 *fill*         0x0000000017861861        0x3 
 .data.ci_udc_ops
                0x0000000017861864       0x1c drivers/usb/gadget/built-in.o
 .data.controller
                0x0000000017861880      0x13c drivers/usb/gadget/built-in.o
 .data.device_desc
                0x00000000178619bc       0x12 drivers/usb/gadget/built-in.o
 *fill*         0x00000000178619ce        0x2 
 .data.g_dnl_string_tab
                0x00000000178619d0        0x8 drivers/usb/gadget/built-in.o
 .data.g_dnl_composite_strings
                0x00000000178619d8        0x8 drivers/usb/gadget/built-in.o
 .data.g_dnl_driver
                0x00000000178619e0       0x20 drivers/usb/gadget/built-in.o
 .data.composite_driver
                0x0000000017861a00       0x1c drivers/usb/gadget/built-in.o
 .data.g_dnl_string_defs
                0x0000000017861a1c       0x20 drivers/usb/gadget/built-in.o
 .data.fsg_fs_bulk_in_desc
                0x0000000017861a3c        0x9 drivers/usb/gadget/built-in.o
 .data.fsg_hs_bulk_out_desc
                0x0000000017861a45        0x9 drivers/usb/gadget/built-in.o
 .data.fsg_fs_bulk_out_desc
                0x0000000017861a4e        0x9 drivers/usb/gadget/built-in.o
 .data.fsg_intf_desc
                0x0000000017861a57        0x9 drivers/usb/gadget/built-in.o
 .data.fsg_stringtab
                0x0000000017861a60        0x8 drivers/usb/gadget/built-in.o
 .data.fsg_fs_function
                0x0000000017861a68       0x10 drivers/usb/gadget/built-in.o
 .data.fsg_hs_function
                0x0000000017861a78       0x10 drivers/usb/gadget/built-in.o
 .data.fsg_strings
                0x0000000017861a88       0x10 drivers/usb/gadget/built-in.o
 .data.fsg_hs_bulk_in_desc
                0x0000000017861a98        0x9 drivers/usb/gadget/built-in.o
 *fill*         0x0000000017861aa1        0x3 
 .data.fsg_strings_array
                0x0000000017861aa4        0x8 drivers/usb/gadget/built-in.o
 .data.descriptor
                0x0000000017861aac       0x38 drivers/usb/host/built-in.o
 .data.fstypes  0x0000000017861ae4       0x84 fs/built-in.o
 .data.ext4fs_indir3_blkno
                0x0000000017861b68        0x4 fs/built-in.o
                0x0000000017861b68                ext4fs_indir3_blkno
 .data.prev_bg_bitmap_index.7310
                0x0000000017861b6c        0x4 fs/built-in.o
 .data.prev_inode_bitmap_index.7329
                0x0000000017861b70        0x4 fs/built-in.o
 .data.ext4fs_indir1_blkno
                0x0000000017861b74        0x4 fs/built-in.o
                0x0000000017861b74                ext4fs_indir1_blkno
 .data.ext4fs_indir2_blkno
                0x0000000017861b78        0x4 fs/built-in.o
                0x0000000017861b78                ext4fs_indir2_blkno
 .data.prev_bg_bmap_idx.7035
                0x0000000017861b7c        0x4 fs/built-in.o
 .data.prev_bg_bmap_idx.7101
                0x0000000017861b80        0x4 fs/built-in.o
 .data.prev_bg_bmap_idx.7069
                0x0000000017861b84        0x4 fs/built-in.o
 .data.prev_bg_bmap_idx.7049
                0x0000000017861b88        0x4 fs/built-in.o
 .data.first_node
                0x0000000017861b8c        0x4 fs/built-in.o
 .data.NetOurNativeVLAN
                0x0000000017861b90        0x2 net/built-in.o
                0x0000000017861b90                NetOurNativeVLAN
 .data.NetBcastAddr
                0x0000000017861b92        0x6 net/built-in.o
                0x0000000017861b92                NetBcastAddr
 .data.NetOurVLAN
                0x0000000017861b98        0x2 net/built-in.o
                0x0000000017861b98                NetOurVLAN
 *fill*         0x0000000017861b9a        0x2 
 .data.first_call.7084
                0x0000000017861b9c        0x4 net/built-in.o
 .data.nfs_offset
                0x0000000017861ba0        0x4 net/built-in.o
 .data.TftpTimeoutCountMax
                0x0000000017861ba4        0x4 net/built-in.o
 .data.TftpRRQTimeoutCountMax
                0x0000000017861ba8        0x4 net/built-in.o
                0x0000000017861ba8                TftpRRQTimeoutCountMax
 .data.TftpBlkSizeOption
                0x0000000017861bac        0x2 net/built-in.o
 *fill*         0x0000000017861bae        0x2 
 .data.TftpTimeoutMSecs
                0x0000000017861bb0        0x4 net/built-in.o
 .data.TftpBlkSize
                0x0000000017861bb4        0x2 net/built-in.o
 *fill*         0x0000000017861bb6        0x2 
 .data.test_commands
                0x0000000017861bb8       0x38 test/dm/built-in.o

.got            0x0000000017861bf0        0x0
 .got           0x0000000000000000        0x0 arch/arm/cpu/armv7/start.o

.got.plt        0x0000000017861bf0        0xc
 .got.plt       0x0000000017861bf0        0xc arch/arm/cpu/armv7/start.o
                0x0000000017861bf0                _GLOBAL_OFFSET_TABLE_

.igot.plt       0x0000000017861bfc        0x0
 .igot.plt      0x0000000000000000        0x0 arch/arm/cpu/armv7/start.o
                0x0000000017861bfc                . = ALIGN (0x4)
                0x0000000017861bfc                . = .
                0x0000000017861bfc                . = ALIGN (0x4)

.u_boot_list    0x0000000017861bfc      0xa8c
 *(SORT(.u_boot_list*))
 .u_boot_list_2_cmd_1
                0x0000000017861bfc        0x0 common/built-in.o
 .u_boot_list_2_cmd_2_base
                0x0000000017861bfc       0x1c common/built-in.o
                0x0000000017861bfc                _u_boot_list_2_cmd_2_base
 .u_boot_list_2_cmd_2_bdinfo
                0x0000000017861c18       0x1c common/built-in.o
                0x0000000017861c18                _u_boot_list_2_cmd_2_bdinfo
 .u_boot_list_2_cmd_2_bmode
                0x0000000017861c34       0x1c arch/arm/imx-common/built-in.o
                0x0000000017861c34                _u_boot_list_2_cmd_2_bmode
 .u_boot_list_2_cmd_2_boot
                0x0000000017861c50       0x1c common/built-in.o
                0x0000000017861c50                _u_boot_list_2_cmd_2_boot
 .u_boot_list_2_cmd_2_bootd
                0x0000000017861c6c       0x1c common/built-in.o
                0x0000000017861c6c                _u_boot_list_2_cmd_2_bootd
 .u_boot_list_2_cmd_2_bootm
                0x0000000017861c88       0x1c common/built-in.o
                0x0000000017861c88                _u_boot_list_2_cmd_2_bootm
 .u_boot_list_2_cmd_2_bootp
                0x0000000017861ca4       0x1c common/built-in.o
                0x0000000017861ca4                _u_boot_list_2_cmd_2_bootp
 .u_boot_list_2_cmd_2_bootz
                0x0000000017861cc0       0x1c common/built-in.o
                0x0000000017861cc0                _u_boot_list_2_cmd_2_bootz
 .u_boot_list_2_cmd_2_clocks
                0x0000000017861cdc       0x1c arch/arm/cpu/armv7/built-in.o
                0x0000000017861cdc                _u_boot_list_2_cmd_2_clocks
 .u_boot_list_2_cmd_2_clrlogo
                0x0000000017861cf8       0x1c drivers/built-in.o
                0x0000000017861cf8                _u_boot_list_2_cmd_2_clrlogo
 .u_boot_list_2_cmd_2_cmp
                0x0000000017861d14       0x1c common/built-in.o
                0x0000000017861d14                _u_boot_list_2_cmd_2_cmp
 .u_boot_list_2_cmd_2_coninfo
                0x0000000017861d30       0x1c common/built-in.o
                0x0000000017861d30                _u_boot_list_2_cmd_2_coninfo
 .u_boot_list_2_cmd_2_cp
                0x0000000017861d4c       0x1c common/built-in.o
                0x0000000017861d4c                _u_boot_list_2_cmd_2_cp
 .u_boot_list_2_cmd_2_cpu
                0x0000000017861d68       0x1c common/built-in.o
                0x0000000017861d68                _u_boot_list_2_cmd_2_cpu
 .u_boot_list_2_cmd_2_crc32
                0x0000000017861d84       0x1c common/built-in.o
                0x0000000017861d84                _u_boot_list_2_cmd_2_crc32
 .u_boot_list_2_cmd_2_dcache
                0x0000000017861da0       0x1c common/built-in.o
                0x0000000017861da0                _u_boot_list_2_cmd_2_dcache
 .u_boot_list_2_cmd_2_dhcp
                0x0000000017861dbc       0x1c common/built-in.o
                0x0000000017861dbc                _u_boot_list_2_cmd_2_dhcp
 .u_boot_list_2_cmd_2_dm
                0x0000000017861dd8       0x1c test/dm/built-in.o
                0x0000000017861dd8                _u_boot_list_2_cmd_2_dm
 .u_boot_list_2_cmd_2_echo
                0x0000000017861df4       0x1c common/built-in.o
                0x0000000017861df4                _u_boot_list_2_cmd_2_echo
 .u_boot_list_2_cmd_2_editenv
                0x0000000017861e10       0x1c common/built-in.o
                0x0000000017861e10                _u_boot_list_2_cmd_2_editenv
 .u_boot_list_2_cmd_2_env
                0x0000000017861e2c       0x1c common/built-in.o
                0x0000000017861e2c                _u_boot_list_2_cmd_2_env
 .u_boot_list_2_cmd_2_erase
                0x0000000017861e48       0x1c common/built-in.o
                0x0000000017861e48                _u_boot_list_2_cmd_2_erase
 .u_boot_list_2_cmd_2_exit
                0x0000000017861e64       0x1c common/built-in.o
                0x0000000017861e64                _u_boot_list_2_cmd_2_exit
 .u_boot_list_2_cmd_2_ext2load
                0x0000000017861e80       0x1c common/built-in.o
                0x0000000017861e80                _u_boot_list_2_cmd_2_ext2load
 .u_boot_list_2_cmd_2_ext2ls
                0x0000000017861e9c       0x1c common/built-in.o
                0x0000000017861e9c                _u_boot_list_2_cmd_2_ext2ls
 .u_boot_list_2_cmd_2_ext4load
                0x0000000017861eb8       0x1c common/built-in.o
                0x0000000017861eb8                _u_boot_list_2_cmd_2_ext4load
 .u_boot_list_2_cmd_2_ext4ls
                0x0000000017861ed4       0x1c common/built-in.o
                0x0000000017861ed4                _u_boot_list_2_cmd_2_ext4ls
 .u_boot_list_2_cmd_2_ext4size
                0x0000000017861ef0       0x1c common/built-in.o
                0x0000000017861ef0                _u_boot_list_2_cmd_2_ext4size
 .u_boot_list_2_cmd_2_ext4write
                0x0000000017861f0c       0x1c common/built-in.o
                0x0000000017861f0c                _u_boot_list_2_cmd_2_ext4write
 .u_boot_list_2_cmd_2_false
                0x0000000017861f28       0x1c common/built-in.o
                0x0000000017861f28                _u_boot_list_2_cmd_2_false
 .u_boot_list_2_cmd_2_fatinfo
                0x0000000017861f44       0x1c common/built-in.o
                0x0000000017861f44                _u_boot_list_2_cmd_2_fatinfo
 .u_boot_list_2_cmd_2_fatload
                0x0000000017861f60       0x1c common/built-in.o
                0x0000000017861f60                _u_boot_list_2_cmd_2_fatload
 .u_boot_list_2_cmd_2_fatls
                0x0000000017861f7c       0x1c common/built-in.o
                0x0000000017861f7c                _u_boot_list_2_cmd_2_fatls
 .u_boot_list_2_cmd_2_fatsize
                0x0000000017861f98       0x1c common/built-in.o
                0x0000000017861f98                _u_boot_list_2_cmd_2_fatsize
 .u_boot_list_2_cmd_2_fdt
                0x0000000017861fb4       0x1c common/built-in.o
                0x0000000017861fb4                _u_boot_list_2_cmd_2_fdt
 .u_boot_list_2_cmd_2_flinfo
                0x0000000017861fd0       0x1c common/built-in.o
                0x0000000017861fd0                _u_boot_list_2_cmd_2_flinfo
 .u_boot_list_2_cmd_2_fuse
                0x0000000017861fec       0x1c common/built-in.o
                0x0000000017861fec                _u_boot_list_2_cmd_2_fuse
 .u_boot_list_2_cmd_2_go
                0x0000000017862008       0x1c common/built-in.o
                0x0000000017862008                _u_boot_list_2_cmd_2_go
 .u_boot_list_2_cmd_2_help
                0x0000000017862024       0x1c common/built-in.o
                0x0000000017862024                _u_boot_list_2_cmd_2_help
 .u_boot_list_2_cmd_2_i2c
                0x0000000017862040       0x1c common/built-in.o
                0x0000000017862040                _u_boot_list_2_cmd_2_i2c
 .u_boot_list_2_cmd_2_icache
                0x000000001786205c       0x1c common/built-in.o
                0x000000001786205c                _u_boot_list_2_cmd_2_icache
 .u_boot_list_2_cmd_2_iminfo
                0x0000000017862078       0x1c common/built-in.o
                0x0000000017862078                _u_boot_list_2_cmd_2_iminfo
 .u_boot_list_2_cmd_2_imxtract
                0x0000000017862094       0x1c common/built-in.o
                0x0000000017862094                _u_boot_list_2_cmd_2_imxtract
 .u_boot_list_2_cmd_2_itest
                0x00000000178620b0       0x1c common/built-in.o
                0x00000000178620b0                _u_boot_list_2_cmd_2_itest
 .u_boot_list_2_cmd_2_loadb
                0x00000000178620cc       0x1c common/built-in.o
                0x00000000178620cc                _u_boot_list_2_cmd_2_loadb
 .u_boot_list_2_cmd_2_loads
                0x00000000178620e8       0x1c common/built-in.o
                0x00000000178620e8                _u_boot_list_2_cmd_2_loads
 .u_boot_list_2_cmd_2_loadx
                0x0000000017862104       0x1c common/built-in.o
                0x0000000017862104                _u_boot_list_2_cmd_2_loadx
 .u_boot_list_2_cmd_2_loady
                0x0000000017862120       0x1c common/built-in.o
                0x0000000017862120                _u_boot_list_2_cmd_2_loady
 .u_boot_list_2_cmd_2_loop
                0x000000001786213c       0x1c common/built-in.o
                0x000000001786213c                _u_boot_list_2_cmd_2_loop
 .u_boot_list_2_cmd_2_md
                0x0000000017862158       0x1c common/built-in.o
                0x0000000017862158                _u_boot_list_2_cmd_2_md
 .u_boot_list_2_cmd_2_mdio
                0x0000000017862174       0x1c common/built-in.o
                0x0000000017862174                _u_boot_list_2_cmd_2_mdio
 .u_boot_list_2_cmd_2_mii
                0x0000000017862190       0x1c common/built-in.o
                0x0000000017862190                _u_boot_list_2_cmd_2_mii
 .u_boot_list_2_cmd_2_mm
                0x00000000178621ac       0x1c common/built-in.o
                0x00000000178621ac                _u_boot_list_2_cmd_2_mm
 .u_boot_list_2_cmd_2_mmc
                0x00000000178621c8       0x1c common/built-in.o
                0x00000000178621c8                _u_boot_list_2_cmd_2_mmc
 .u_boot_list_2_cmd_2_mmcinfo
                0x00000000178621e4       0x1c common/built-in.o
                0x00000000178621e4                _u_boot_list_2_cmd_2_mmcinfo
 .u_boot_list_2_cmd_2_mw
                0x0000000017862200       0x1c common/built-in.o
                0x0000000017862200                _u_boot_list_2_cmd_2_mw
 .u_boot_list_2_cmd_2_nfs
                0x000000001786221c       0x1c common/built-in.o
                0x000000001786221c                _u_boot_list_2_cmd_2_nfs
 .u_boot_list_2_cmd_2_nm
                0x0000000017862238       0x1c common/built-in.o
                0x0000000017862238                _u_boot_list_2_cmd_2_nm
 .u_boot_list_2_cmd_2_pci
                0x0000000017862254       0x1c common/built-in.o
                0x0000000017862254                _u_boot_list_2_cmd_2_pci
 .u_boot_list_2_cmd_2_ping
                0x0000000017862270       0x1c common/built-in.o
                0x0000000017862270                _u_boot_list_2_cmd_2_ping
 .u_boot_list_2_cmd_2_pmic
                0x000000001786228c       0x1c drivers/power/built-in.o
                0x000000001786228c                _u_boot_list_2_cmd_2_pmic
 .u_boot_list_2_cmd_2_printenv
                0x00000000178622a8       0x1c common/built-in.o
                0x00000000178622a8                _u_boot_list_2_cmd_2_printenv
 .u_boot_list_2_cmd_2_protect
                0x00000000178622c4       0x1c common/built-in.o
                0x00000000178622c4                _u_boot_list_2_cmd_2_protect
 .u_boot_list_2_cmd_2_question_mark
                0x00000000178622e0       0x1c common/built-in.o
                0x00000000178622e0                _u_boot_list_2_cmd_2_question_mark
 .u_boot_list_2_cmd_2_reset
                0x00000000178622fc       0x1c common/built-in.o
                0x00000000178622fc                _u_boot_list_2_cmd_2_reset
 .u_boot_list_2_cmd_2_run
                0x0000000017862318       0x1c common/built-in.o
                0x0000000017862318                _u_boot_list_2_cmd_2_run
 .u_boot_list_2_cmd_2_saveenv
                0x0000000017862334       0x1c common/built-in.o
                0x0000000017862334                _u_boot_list_2_cmd_2_saveenv
 .u_boot_list_2_cmd_2_setenv
                0x0000000017862350       0x1c common/built-in.o
                0x0000000017862350                _u_boot_list_2_cmd_2_setenv
 .u_boot_list_2_cmd_2_setexpr
                0x000000001786236c       0x1c common/built-in.o
                0x000000001786236c                _u_boot_list_2_cmd_2_setexpr
 .u_boot_list_2_cmd_2_sf
                0x0000000017862388       0x1c common/built-in.o
                0x0000000017862388                _u_boot_list_2_cmd_2_sf
 .u_boot_list_2_cmd_2_showvar
                0x00000000178623a4       0x1c common/built-in.o
                0x00000000178623a4                _u_boot_list_2_cmd_2_showvar
 .u_boot_list_2_cmd_2_sleep
                0x00000000178623c0       0x1c common/built-in.o
                0x00000000178623c0                _u_boot_list_2_cmd_2_sleep
 .u_boot_list_2_cmd_2_source
                0x00000000178623dc       0x1c common/built-in.o
                0x00000000178623dc                _u_boot_list_2_cmd_2_source
 .u_boot_list_2_cmd_2_test
                0x00000000178623f8       0x1c common/built-in.o
                0x00000000178623f8                _u_boot_list_2_cmd_2_test
 .u_boot_list_2_cmd_2_tftpboot
                0x0000000017862414       0x1c common/built-in.o
                0x0000000017862414                _u_boot_list_2_cmd_2_tftpboot
 .u_boot_list_2_cmd_2_true
                0x0000000017862430       0x1c common/built-in.o
                0x0000000017862430                _u_boot_list_2_cmd_2_true
 .u_boot_list_2_cmd_2_ums
                0x000000001786244c       0x1c common/built-in.o
                0x000000001786244c                _u_boot_list_2_cmd_2_ums
 .u_boot_list_2_cmd_2_usb
                0x0000000017862468       0x1c common/built-in.o
                0x0000000017862468                _u_boot_list_2_cmd_2_usb
 .u_boot_list_2_cmd_2_usbboot
                0x0000000017862484       0x1c common/built-in.o
                0x0000000017862484                _u_boot_list_2_cmd_2_usbboot
 .u_boot_list_2_cmd_2_version
                0x00000000178624a0       0x1c common/built-in.o
                0x00000000178624a0                _u_boot_list_2_cmd_2_version
 .u_boot_list_2_cmd_3
                0x00000000178624bc        0x0 common/built-in.o
 .u_boot_list_2_driver_1
                0x00000000178624bc        0x0 drivers/built-in.o
 .u_boot_list_2_driver_2_imx_thermal
                0x00000000178624bc       0x44 drivers/built-in.o
                0x00000000178624bc                _u_boot_list_2_driver_2_imx_thermal
 .u_boot_list_2_driver_2_root_driver
                0x0000000017862500       0x44 drivers/built-in.o
                0x0000000017862500                _u_boot_list_2_driver_2_root_driver
 .u_boot_list_2_driver_3
                0x0000000017862544        0x0 drivers/built-in.o
 .u_boot_list_2_driver_info_1
                0x0000000017862544        0x0 drivers/built-in.o
 .u_boot_list_2_driver_info_2_imx6_thermal
                0x0000000017862544        0x8 arch/arm/cpu/armv7/built-in.o
                0x0000000017862544                _u_boot_list_2_driver_info_2_imx6_thermal
 .u_boot_list_2_driver_info_3
                0x000000001786254c        0x0 drivers/built-in.o
 .u_boot_list_2_env_clbk_1
                0x000000001786254c        0x0 common/built-in.o
 .u_boot_list_2_env_clbk_2_baudrate
                0x000000001786254c        0x8 drivers/serial/built-in.o
                0x000000001786254c                _u_boot_list_2_env_clbk_2_baudrate
 .u_boot_list_2_env_clbk_2_bootfile
                0x0000000017862554        0x8 net/built-in.o
                0x0000000017862554                _u_boot_list_2_env_clbk_2_bootfile
 .u_boot_list_2_env_clbk_2_callbacks
                0x000000001786255c        0x8 common/built-in.o
                0x000000001786255c                _u_boot_list_2_env_clbk_2_callbacks
 .u_boot_list_2_env_clbk_2_console
                0x0000000017862564        0x8 common/built-in.o
                0x0000000017862564                _u_boot_list_2_env_clbk_2_console
 .u_boot_list_2_env_clbk_2_flags
                0x000000001786256c        0x8 common/built-in.o
                0x000000001786256c                _u_boot_list_2_env_clbk_2_flags
 .u_boot_list_2_env_clbk_2_loadaddr
                0x0000000017862574        0x8 common/built-in.o
                0x0000000017862574                _u_boot_list_2_env_clbk_2_loadaddr
 .u_boot_list_2_env_clbk_3
                0x000000001786257c        0x0 common/built-in.o
 .u_boot_list_2_g_dnl_bind_callbacks_1
                0x000000001786257c        0x0 drivers/usb/gadget/built-in.o
 .u_boot_list_2_g_dnl_bind_callbacks_2___usb_function_name_usb_dnl_ums
                0x000000001786257c        0x8 drivers/usb/gadget/built-in.o
                0x000000001786257c                _u_boot_list_2_g_dnl_bind_callbacks_2___usb_function_name_usb_dnl_ums
 .u_boot_list_2_g_dnl_bind_callbacks_3
                0x0000000017862584        0x0 drivers/usb/gadget/built-in.o
 .u_boot_list_2_i2c_1
                0x0000000017862584        0x0 common/built-in.o
 .u_boot_list_2_i2c_1
                0x0000000017862584        0x0 drivers/i2c/built-in.o
 .u_boot_list_2_i2c_2_mxc0
                0x0000000017862584       0x2c drivers/i2c/built-in.o
                0x0000000017862584                _u_boot_list_2_i2c_2_mxc0
 .u_boot_list_2_i2c_2_mxc1
                0x00000000178625b0       0x2c drivers/i2c/built-in.o
                0x00000000178625b0                _u_boot_list_2_i2c_2_mxc1
 .u_boot_list_2_i2c_2_mxc2
                0x00000000178625dc       0x2c drivers/i2c/built-in.o
                0x00000000178625dc                _u_boot_list_2_i2c_2_mxc2
 .u_boot_list_2_i2c_3
                0x0000000017862608        0x0 common/built-in.o
 .u_boot_list_2_i2c_3
                0x0000000017862608        0x0 drivers/i2c/built-in.o
 .u_boot_list_2_uclass_1
                0x0000000017862608        0x0 drivers/built-in.o
 .u_boot_list_2_uclass_2_root
                0x0000000017862608       0x40 drivers/built-in.o
                0x0000000017862608                _u_boot_list_2_uclass_2_root
 .u_boot_list_2_uclass_2_thermal
                0x0000000017862648       0x40 drivers/built-in.o
                0x0000000017862648                _u_boot_list_2_uclass_2_thermal
 .u_boot_list_2_uclass_3
                0x0000000017862688        0x0 drivers/built-in.o
                0x0000000017862688                . = ALIGN (0x4)

.image_copy_end
                0x0000000017862688        0x0
 *(.__image_copy_end)
 .__image_copy_end
                0x0000000017862688        0x0 arch/arm/lib/built-in.o

.rel_dyn_start  0x0000000017862688        0x0
 *(.__rel_dyn_start)
 .__rel_dyn_start
                0x0000000017862688        0x0 arch/arm/lib/built-in.o

.rel.dyn        0x0000000017862688     0x92f8
 *(.rel*)
 .rel.got       0x0000000000000000        0x0 arch/arm/cpu/armv7/start.o
 .rel.plt       0x0000000000000000        0x0 arch/arm/cpu/armv7/start.o
 .rel.iplt      0x0000000000000000        0x0 arch/arm/cpu/armv7/start.o
 .rel.text      0x0000000017862688       0x20 arch/arm/cpu/armv7/start.o
 .rel.text.invalidate_dcache_range
                0x00000000178626a8       0x18 arch/arm/cpu/armv7/start.o
 .rel.text.get_ipg_clk
                0x00000000178626c0        0x8 arch/arm/cpu/armv7/start.o
 .rel.text.get_uart_clk
                0x00000000178626c8        0x8 arch/arm/cpu/armv7/start.o
 .rel.text.mxc_get_pll_pfd
                0x00000000178626d0        0x8 arch/arm/cpu/armv7/start.o
 .rel.text.get_usdhc_clk
                0x00000000178626d8       0x28 arch/arm/cpu/armv7/start.o
 .rel.text.enable_ocotp_clk
                0x0000000017862700        0x8 arch/arm/cpu/armv7/start.o
 .rel.text.enable_usboh3_clk
                0x0000000017862708        0x8 arch/arm/cpu/armv7/start.o
 .rel.text.enable_enet_clk
                0x0000000000000000        0x0 arch/arm/cpu/armv7/start.o
 .rel.text.enable_uart_clk
                0x0000000000000000        0x0 arch/arm/cpu/armv7/start.o
 .rel.text.enable_usdhc_clk
                0x0000000000000000        0x0 arch/arm/cpu/armv7/start.o
 .rel.text.enable_i2c_clk
                0x0000000017862710        0x8 arch/arm/cpu/armv7/start.o
 .rel.text.enable_spi_clk
                0x0000000000000000        0x0 arch/arm/cpu/armv7/start.o
 .rel.text.get_periph_clk
                0x0000000017862718        0x8 arch/arm/cpu/armv7/start.o
 .rel.text.get_axi_clk
                0x0000000017862720        0x8 arch/arm/cpu/armv7/start.o
 .rel.text.mxc_get_clock
                0x0000000017862728       0x98 arch/arm/cpu/armv7/start.o
 .rel.text.do_mx6_showclocks
                0x00000000178627c0       0x90 arch/arm/cpu/armv7/start.o
 .rel.text.cpu_reset
                0x0000000017862850        0x8 arch/arm/cpu/armv7/start.o
 .rel.text.cpu_status
                0x0000000017862858       0x10 arch/arm/cpu/armv7/start.o
 .rel.text.cpu_release
                0x0000000017862868        0x8 arch/arm/cpu/armv7/start.o
 .rel.text.cpu_disable
                0x0000000017862870        0x8 arch/arm/cpu/armv7/start.o
 .rel.rodata.soc_boot_modes
                0x0000000017862878       0x58 arch/arm/cpu/armv7/start.o
 .rel.u_boot_list_2_driver_info_2_imx6_thermal
                0x00000000178628d0       0x10 arch/arm/cpu/armv7/start.o
 .rel.u_boot_list_2_cmd_2_clocks
                0x00000000178628e0       0x20 arch/arm/cpu/armv7/start.o
 .rel.text.get_imx_reset_cause
                0x0000000000000000        0x0 arch/arm/cpu/armv7/start.o
 .rel.text.imx_ddr_size
                0x0000000017862900       0x10 arch/arm/cpu/armv7/start.o
 .rel.text.get_imx_type
                0x0000000017862910       0x10 arch/arm/cpu/armv7/start.o
 .rel.text.print_cpuinfo
                0x0000000017862920       0xb0 arch/arm/cpu/armv7/start.o
 .rel.text.set_chipselect_size
                0x0000000000000000        0x0 arch/arm/cpu/armv7/start.o
 .rel.text.force_idle_bus
                0x00000000178629d0       0x18 arch/arm/cpu/armv7/start.o
 .rel.text.setup_i2c
                0x00000000178629e8       0x20 arch/arm/cpu/armv7/start.o
 .rel.text.board_video_skip
                0x0000000017862a08       0x40 arch/arm/cpu/armv7/start.o
 .rel.text.create_usage
                0x0000000017862a48       0x10 arch/arm/cpu/armv7/start.o
 .rel.text.do_boot_mode
                0x0000000017862a58       0x10 arch/arm/cpu/armv7/start.o
 .rel.text.add_board_boot_modes
                0x0000000017862a68       0x18 arch/arm/cpu/armv7/start.o
 .rel.rodata.CSWTCH.13
                0x0000000017862a80       0xa8 arch/arm/cpu/armv7/start.o
 .rel.u_boot_list_2_cmd_2_bmode
                0x0000000017862b28       0x18 arch/arm/cpu/armv7/start.o
 .rel.vectors   0x0000000017862b40       0x38 arch/arm/cpu/armv7/start.o
 .rel.text.relocate_vectors
                0x0000000017862b78       0x20 arch/arm/cpu/armv7/start.o
 .rel.text.boot_jump_linux
                0x0000000017862b98       0x28 arch/arm/cpu/armv7/start.o
 .rel.text.boot_prep_linux
                0x0000000017862bc0       0x18 arch/arm/cpu/armv7/start.o
 .rel.text.bootz_setup
                0x0000000017862bd8       0x10 arch/arm/cpu/armv7/start.o
 .rel.text.boot_prep_vxworks
                0x0000000017862be8       0x10 arch/arm/cpu/armv7/start.o
 .rel.text.v7_outer_cache_inval_range
                0x0000000017862bf8       0x18 arch/arm/cpu/armv7/start.o
 .rel.text.interrupt_init
                0x0000000017862c10        0x8 arch/arm/cpu/armv7/start.o
 .rel.text.bad_mode
                0x0000000017862c18        0x8 arch/arm/cpu/armv7/start.o
 .rel.text.show_regs
                0x0000000017862c20       0x60 arch/arm/cpu/armv7/start.o
 .rel.text.do_undefined_instruction
                0x0000000017862c80        0x8 arch/arm/cpu/armv7/start.o
 .rel.text.do_software_interrupt
                0x0000000017862c88        0x8 arch/arm/cpu/armv7/start.o
 .rel.text.do_prefetch_abort
                0x0000000017862c90        0x8 arch/arm/cpu/armv7/start.o
 .rel.text.do_data_abort
                0x0000000017862c98        0x8 arch/arm/cpu/armv7/start.o
 .rel.text.do_not_used
                0x0000000017862ca0        0x8 arch/arm/cpu/armv7/start.o
 .rel.text.do_fiq
                0x0000000017862ca8        0x8 arch/arm/cpu/armv7/start.o
 .rel.text.do_irq
                0x0000000017862cb0        0x8 arch/arm/cpu/armv7/start.o
 .rel.text.do_reset
                0x0000000017862cb8        0x8 arch/arm/cpu/armv7/start.o
 .rel.text.enable_caches
                0x0000000000000000        0x0 arch/arm/cpu/armv7/start.o
 .rel.rodata    0x0000000017862cc0      0x118 arch/arm/cpu/armv7/start.o
 .rel.text.pfuze_mode_init
                0x0000000000000000        0x0 arch/arm/cpu/armv7/start.o
 .rel.text.pfuze_common_init
                0x0000000000000000        0x0 arch/arm/cpu/armv7/start.o
 .rel.text.enable_rgb
                0x0000000017862dd8        0x8 arch/arm/cpu/armv7/start.o
 .rel.text.board_mmc_init
                0x0000000017862de0       0x18 arch/arm/cpu/armv7/start.o
 .rel.text.board_eth_init
                0x0000000017862df8       0x10 arch/arm/cpu/armv7/start.o
 .rel.text.board_ehci_power
                0x0000000017862e08        0x8 arch/arm/cpu/armv7/start.o
 .rel.text.board_early_init_f
                0x0000000017862e10       0x10 arch/arm/cpu/armv7/start.o
 .rel.text.board_init
                0x0000000017862e20       0x20 arch/arm/cpu/armv7/start.o
 .rel.text.board_late_init
                0x0000000017862e40        0x8 arch/arm/cpu/armv7/start.o
 .rel.text.checkboard
                0x0000000017862e48        0x8 arch/arm/cpu/armv7/start.o
 .rel.rodata.displays
                0x0000000017862e50       0x38 arch/arm/cpu/armv7/start.o
 .rel.rodata.board_boot_modes
                0x0000000017862e88       0x10 arch/arm/cpu/armv7/start.o
 .rel.text.jumptable_init
                0x0000000017862e98       0xb8 arch/arm/cpu/armv7/start.o
 .rel.text.hash_lookup_algo
                0x0000000000000000        0x0 arch/arm/cpu/armv7/start.o
 .rel.text.hash_progressive_lookup_algo
                0x0000000000000000        0x0 arch/arm/cpu/armv7/start.o
 .rel.text.hash_show
                0x0000000000000000        0x0 arch/arm/cpu/armv7/start.o
 .rel.text.hash_command
                0x0000000017862f50        0x8 arch/arm/cpu/armv7/start.o
 .rel.text.mapset
                0x0000000017862f58        0x8 arch/arm/cpu/armv7/start.o
 .rel.text.syntax_err
                0x0000000017862f60        0x8 arch/arm/cpu/armv7/start.o
 .rel.text.xmalloc
                0x0000000017862f68        0x8 arch/arm/cpu/armv7/start.o
 .rel.text.xrealloc
                0x0000000017862f70        0x8 arch/arm/cpu/armv7/start.o
 .rel.text.done_word
                0x0000000017862f78        0x8 arch/arm/cpu/armv7/start.o
 .rel.text.do_showvar
                0x0000000017862f80       0x20 arch/arm/cpu/armv7/start.o
 .rel.text.is_assignment
                0x0000000017862fa0        0x8 arch/arm/cpu/armv7/start.o
 .rel.text.file_get
                0x0000000017862fa8       0x30 arch/arm/cpu/armv7/start.o
 .rel.text.b_addqchr
                0x0000000017862fd8        0x8 arch/arm/cpu/armv7/start.o
 .rel.text.get_local_var
                0x0000000017862fe0       0x20 arch/arm/cpu/armv7/start.o
 .rel.text.set_local_var
                0x0000000017863000       0x20 arch/arm/cpu/armv7/start.o
 .rel.text.insert_var_value_sub
                0x0000000017863020        0x8 arch/arm/cpu/armv7/start.o
 .rel.text.unset_local_var
                0x0000000000000000        0x0 arch/arm/cpu/armv7/start.o
 .rel.text.parse_string_outer
                0x0000000017863028       0x18 arch/arm/cpu/armv7/start.o
 .rel.text.run_list_real
                0x0000000017863040       0x40 arch/arm/cpu/armv7/start.o
 .rel.text.parse_stream_outer
                0x0000000017863080       0x68 arch/arm/cpu/armv7/start.o
 .rel.text.parse_file_outer
                0x00000000178630e8       0x10 arch/arm/cpu/armv7/start.o
 .rel.text.u_boot_hush_start
                0x00000000178630f8       0x18 arch/arm/cpu/armv7/start.o
 .rel.text.bootdelay_process
                0x0000000017863110       0x18 arch/arm/cpu/armv7/start.o
 .rel.text.autoboot_command
                0x0000000017863128       0x18 arch/arm/cpu/armv7/start.o
 .rel.text.setup_mon_len
                0x0000000017863140       0x10 arch/arm/cpu/armv7/start.o
 .rel.text.announce_dram_init
                0x0000000017863150        0x8 arch/arm/cpu/armv7/start.o
 .rel.text.init_func_i2c
                0x0000000017863158       0x10 arch/arm/cpu/armv7/start.o
 .rel.text.init_baud_rate
                0x0000000017863168        0x8 arch/arm/cpu/armv7/start.o
 .rel.text.show_dram_config
                0x0000000017863170        0x8 arch/arm/cpu/armv7/start.o
 .rel.text.board_init_f
                0x0000000017863178        0x8 arch/arm/cpu/armv7/start.o
 .rel.text.initr_reloc_global_data
                0x0000000017863180       0x18 arch/arm/cpu/armv7/start.o
 .rel.text.initr_net
                0x0000000017863198        0x8 arch/arm/cpu/armv7/start.o
 .rel.text.initr_ethaddr
                0x00000000178631a0        0x8 arch/arm/cpu/armv7/start.o
 .rel.text.initr_env
                0x00000000178631a8       0x10 arch/arm/cpu/armv7/start.o
 .rel.text.initr_mmc
                0x00000000178631b8        0x8 arch/arm/cpu/armv7/start.o
 .rel.text.board_init_r
                0x00000000178631c0        0x8 arch/arm/cpu/armv7/start.o
 .rel.text.do_go
                0x00000000178631c8       0x10 arch/arm/cpu/armv7/start.o
 .rel.text.do_bootm
                0x00000000178631d8       0x18 arch/arm/cpu/armv7/start.o
 .rel.text.do_bootd
                0x00000000178631f0        0x8 arch/arm/cpu/armv7/start.o
 .rel.text.image_info
                0x00000000178631f8       0x40 arch/arm/cpu/armv7/start.o
 .rel.text.do_iminfo
                0x0000000017863238        0x8 arch/arm/cpu/armv7/start.o
 .rel.text.bootm_maybe_autostart
                0x0000000017863240       0x20 arch/arm/cpu/armv7/start.o
 .rel.text.do_bootz
                0x0000000017863260       0x10 arch/arm/cpu/armv7/start.o
 .rel.text.bootm_find_ramdisk_fdt
                0x0000000017863270       0x18 arch/arm/cpu/armv7/start.o
 .rel.text.bootm_decomp_image
                0x0000000017863288       0x48 arch/arm/cpu/armv7/start.o
 .rel.text.do_bootm_states
                0x00000000178632d0       0xb8 arch/arm/cpu/armv7/start.o
 .rel.text.do_bootm_rtems
                0x0000000017863388        0x8 arch/arm/cpu/armv7/start.o
 .rel.text.do_bootm_plan9
                0x0000000017863390       0x18 arch/arm/cpu/armv7/start.o
 .rel.text.do_bootm_standalone
                0x00000000178633a8       0x18 arch/arm/cpu/armv7/start.o
 .rel.text.do_bootm_netbsd
                0x00000000178633c0       0x18 arch/arm/cpu/armv7/start.o
 .rel.text.do_bootvx_fdt
                0x00000000178633d8       0x38 arch/arm/cpu/armv7/start.o
 .rel.text.bootm_os_get_boot_func
                0x0000000017863410        0x8 arch/arm/cpu/armv7/start.o
 .rel.text.do_help
                0x0000000017863418       0x10 arch/arm/cpu/armv7/start.o
 .rel.text.do_version
                0x0000000017863428       0x20 arch/arm/cpu/armv7/start.o
 .rel.text.env_attr_lookup
                0x0000000017863448        0x8 arch/arm/cpu/armv7/start.o
 .rel.text.find_env_callback
                0x0000000017863450       0x10 arch/arm/cpu/armv7/start.o
 .rel.text.on_callbacks
                0x0000000017863460       0x20 arch/arm/cpu/armv7/start.o
 .rel.text.set_callback
                0x0000000017863480        0x8 arch/arm/cpu/armv7/start.o
 .rel.text.env_callback_init
                0x0000000017863488       0x20 arch/arm/cpu/armv7/start.o
 .rel.text.skip_num
                0x00000000178634a8        0x8 arch/arm/cpu/armv7/start.o
 .rel.text.on_flags
                0x00000000178634b0       0x20 arch/arm/cpu/armv7/start.o
 .rel.text.env_flags_parse_vartype
                0x00000000178634d0       0x10 arch/arm/cpu/armv7/start.o
 .rel.text.env_flags_parse_varaccess
                0x00000000178634e0       0x10 arch/arm/cpu/armv7/start.o
 .rel.text.set_flags
                0x00000000178634f0       0x10 arch/arm/cpu/armv7/start.o
 .rel.text.env_flags_init
                0x0000000017863500       0x30 arch/arm/cpu/armv7/start.o
 .rel.text.env_flags_validate
                0x0000000017863530       0x68 arch/arm/cpu/armv7/start.o
 .rel.text.init_mmc_for_env
                0x0000000017863598       0x10 arch/arm/cpu/armv7/start.o
 .rel.text.env_init
                0x00000000178635a8        0x8 arch/arm/cpu/armv7/start.o
 .rel.text.saveenv
                0x00000000178635b0       0x20 arch/arm/cpu/armv7/start.o
 .rel.text.source
                0x00000000178635d0       0x38 arch/arm/cpu/armv7/start.o
 .rel.text.do_source
                0x0000000017863608        0x8 arch/arm/cpu/armv7/start.o
 .rel.text.print_num
                0x0000000017863610        0x8 arch/arm/cpu/armv7/start.o
 .rel.text.do_bdinfo
                0x0000000017863618       0xa0 arch/arm/cpu/armv7/start.o
 .rel.text.parse_argv
                0x00000000178636b8       0x18 arch/arm/cpu/armv7/start.o
 .rel.text.invalidate_icache_all
                0x0000000000000000        0x0 arch/arm/cpu/armv7/start.o
 .rel.text.do_icache
                0x00000000178636d0       0x18 arch/arm/cpu/armv7/start.o
 .rel.text.flush_dcache_all
                0x0000000000000000        0x0 arch/arm/cpu/armv7/start.o
 .rel.text.do_dcache
                0x00000000178636e8       0x18 arch/arm/cpu/armv7/start.o
 .rel.text.do_coninfo
                0x0000000017863700       0x28 arch/arm/cpu/armv7/start.o
 .rel.text.do_echo
                0x0000000017863728        0x8 arch/arm/cpu/armv7/start.o
 .rel.text.do_fat_fsinfo
                0x0000000017863730       0x10 arch/arm/cpu/armv7/start.o
 .rel.text.fdt_valid
                0x0000000017863740       0x28 arch/arm/cpu/armv7/start.o
 .rel.text.is_printable_string
                0x0000000017863768        0x8 arch/arm/cpu/armv7/start.o
 .rel.text.print_data
                0x0000000017863770       0x58 arch/arm/cpu/armv7/start.o
 .rel.text.set_working_fdt_addr
                0x00000000178637c8       0x10 arch/arm/cpu/armv7/start.o
 .rel.text.do_fdt
                0x00000000178637d8      0x240 arch/arm/cpu/armv7/start.o
 .rel.text.of_bus_default_count_cells
                0x0000000000000000        0x0 arch/arm/cpu/armv7/start.o
 .rel.text.fdt_find_or_add_subnode
                0x0000000017863a18       0x10 arch/arm/cpu/armv7/start.o
 .rel.text.fdt_initrd
                0x0000000017863a28       0x30 arch/arm/cpu/armv7/start.o
 .rel.text.fdt_chosen
                0x0000000017863a58       0x20 arch/arm/cpu/armv7/start.o
 .rel.text.do_fixup_by_path
                0x0000000017863a78        0x8 arch/arm/cpu/armv7/start.o
 .rel.text.fdt_fixup_memory_banks
                0x0000000017863a80       0x38 arch/arm/cpu/armv7/start.o
 .rel.text.fdt_fixup_ethernet
                0x0000000017863ab8       0x38 arch/arm/cpu/armv7/start.o
 .rel.text.fdt_pci_dma_ranges
                0x0000000000000000        0x0 arch/arm/cpu/armv7/start.o
 .rel.text.fdt_del_node_and_alias
                0x0000000000000000        0x0 arch/arm/cpu/armv7/start.o
 .rel.text.fdt_translate_address
                0x0000000000000000        0x0 arch/arm/cpu/armv7/start.o
 .rel.text.fdt_node_offset_by_compat_reg
                0x0000000000000000        0x0 arch/arm/cpu/armv7/start.o
 .rel.text.fdt_set_phandle
                0x0000000000000000        0x0 arch/arm/cpu/armv7/start.o
 .rel.text.fdt_create_phandle
                0x0000000000000000        0x0 arch/arm/cpu/armv7/start.o
 .rel.text.fdt_set_node_status
                0x0000000000000000        0x0 arch/arm/cpu/armv7/start.o
 .rel.text.fdt_add_edid
                0x0000000000000000        0x0 arch/arm/cpu/armv7/start.o
 .rel.text.fdt_verify_alias_address
                0x0000000000000000        0x0 arch/arm/cpu/armv7/start.o
 .rel.text.fdt_get_base_address
                0x0000000000000000        0x0 arch/arm/cpu/armv7/start.o
 .rel.text.fdt_read_range
                0x0000000000000000        0x0 arch/arm/cpu/armv7/start.o
 .rel.text.fdt_setup_simplefb_node
                0x0000000000000000        0x0 arch/arm/cpu/armv7/start.o
 .rel.text.fdt_fixup_display
                0x0000000000000000        0x0 arch/arm/cpu/armv7/start.o
 .rel.text.do_fuse
                0x0000000017863af0       0x70 arch/arm/cpu/armv7/start.o
 .rel.text.do_i2c
                0x0000000017863b60        0x8 arch/arm/cpu/armv7/start.o
 .rel.text.do_i2c_probe
                0x0000000017863b68       0x10 arch/arm/cpu/armv7/start.o
 .rel.text.do_i2c_bus_num
                0x0000000017863b78       0x30 arch/arm/cpu/armv7/start.o
 .rel.text.do_i2c_bus_speed
                0x0000000017863ba8       0x18 arch/arm/cpu/armv7/start.o
 .rel.text.do_i2c_show_bus
                0x0000000017863bc0       0x28 arch/arm/cpu/armv7/start.o
 .rel.text.do_i2c_crc
                0x0000000017863be8       0x20 arch/arm/cpu/armv7/start.o
 .rel.text.do_i2c_read
                0x0000000017863c08       0x10 arch/arm/cpu/armv7/start.o
 .rel.text.do_i2c_md
                0x0000000017863c18       0x58 arch/arm/cpu/armv7/start.o
 .rel.text.do_i2c_mw
                0x0000000017863c70       0x10 arch/arm/cpu/armv7/start.o
 .rel.text.do_i2c_write
                0x0000000017863c80       0x18 arch/arm/cpu/armv7/start.o
 .rel.text.mod_i2c_mem.isra.4
                0x0000000017863c98       0x60 arch/arm/cpu/armv7/start.o
 .rel.text.do_i2c_loop
                0x0000000017863cf8       0x10 arch/arm/cpu/armv7/start.o
 .rel.text.binary_test
                0x0000000017863d08       0x70 arch/arm/cpu/armv7/start.o
 .rel.text.do_itest
                0x0000000017863d78       0x40 arch/arm/cpu/armv7/start.o
 .rel.text.bin_data_init
                0x0000000017863db8       0x18 arch/arm/cpu/armv7/start.o
 .rel.text.k_data_save
                0x0000000017863dd0       0x30 arch/arm/cpu/armv7/start.o
 .rel.text.k_data_restore
                0x0000000017863e00       0x30 arch/arm/cpu/armv7/start.o
 .rel.text.load_serial_ymodem
                0x0000000017863e30       0x20 arch/arm/cpu/armv7/start.o
 .rel.text.bin_data_char
                0x0000000017863e50       0x10 arch/arm/cpu/armv7/start.o
 .rel.text.chk1.constprop.1
                0x0000000017863e60        0x8 arch/arm/cpu/armv7/start.o
 .rel.text.s1_sendpacket.constprop.2
                0x0000000017863e68       0x18 arch/arm/cpu/armv7/start.o
 .rel.text.load_serial
                0x0000000017863e80       0x68 arch/arm/cpu/armv7/start.o
 .rel.text.do_load_serial
                0x0000000017863ee8       0x30 arch/arm/cpu/armv7/start.o
 .rel.text.do_load_serial_bin
                0x0000000017863f18       0xe8 arch/arm/cpu/armv7/start.o
 .rel.text.do_mem_mw
                0x0000000017864000        0x8 arch/arm/cpu/armv7/start.o
 .rel.text.do_mem_md
                0x0000000017864008       0x20 arch/arm/cpu/armv7/start.o
 .rel.text.do_mem_cmp
                0x0000000017864028       0x38 arch/arm/cpu/armv7/start.o
 .rel.text.do_mem_base
                0x0000000017864060       0x10 arch/arm/cpu/armv7/start.o
 .rel.text.do_mem_cp
                0x0000000017864070       0x10 arch/arm/cpu/armv7/start.o
 .rel.text.do_mem_crc
                0x0000000017864080        0x8 arch/arm/cpu/armv7/start.o
 .rel.text.mod_mem.isra.2
                0x0000000017864088       0x48 arch/arm/cpu/armv7/start.o
 .rel.text.miiphy_get_dev_by_name
                0x00000000178640d0       0x10 arch/arm/cpu/armv7/start.o
 .rel.text.miiphy_init
                0x00000000178640e0       0x10 arch/arm/cpu/armv7/start.o
 .rel.text.miiphy_register
                0x0000000000000000        0x0 arch/arm/cpu/armv7/start.o
 .rel.text.mdio_register
                0x00000000178640f0       0x18 arch/arm/cpu/armv7/start.o
 .rel.text.mdio_list_devices
                0x0000000017864108       0x28 arch/arm/cpu/armv7/start.o
 .rel.text.miiphy_set_current_dev
                0x0000000017864130       0x10 arch/arm/cpu/armv7/start.o
 .rel.text.miiphy_get_active_dev
                0x0000000017864140        0x8 arch/arm/cpu/armv7/start.o
 .rel.text.mdio_get_current_dev
                0x0000000017864148        0x8 arch/arm/cpu/armv7/start.o
 .rel.text.mdio_phydev_for_ethname
                0x0000000017864150       0x10 arch/arm/cpu/armv7/start.o
 .rel.text.miiphy_get_current_dev
                0x0000000017864160        0x8 arch/arm/cpu/armv7/start.o
 .rel.text.miiphy_listdev
                0x0000000017864168       0x30 arch/arm/cpu/armv7/start.o
 .rel.text.miiphy_speed
                0x0000000017864198       0x18 arch/arm/cpu/armv7/start.o
 .rel.text.miiphy_duplex
                0x00000000178641b0       0x18 arch/arm/cpu/armv7/start.o
 .rel.text.do_mii
                0x00000000178641c8      0x130 arch/arm/cpu/armv7/start.o
 .rel.text.do_mdio
                0x00000000178642f8       0x70 arch/arm/cpu/armv7/start.o
 .rel.text.do_mmcops
                0x0000000017864368       0x18 arch/arm/cpu/armv7/start.o
 .rel.text.init_mmc_device
                0x0000000017864380        0x8 arch/arm/cpu/armv7/start.o
 .rel.text.do_mmc_rescan
                0x0000000017864388        0x8 arch/arm/cpu/armv7/start.o
 .rel.text.do_mmc_rst_func
                0x0000000017864390       0x10 arch/arm/cpu/armv7/start.o
 .rel.text.do_mmc_partconf
                0x00000000178643a0        0x8 arch/arm/cpu/armv7/start.o
 .rel.text.do_mmc_boot_resize
                0x00000000178643a8       0x20 arch/arm/cpu/armv7/start.o
 .rel.text.do_mmc_bootbus
                0x00000000178643c8        0x8 arch/arm/cpu/armv7/start.o
 .rel.text.do_mmc_hwpartition
                0x00000000178643d0       0xb0 arch/arm/cpu/armv7/start.o
 .rel.text.do_mmc_dev
                0x0000000017864480       0x38 arch/arm/cpu/armv7/start.o
 .rel.text.do_mmc_part
                0x00000000178644b8       0x10 arch/arm/cpu/armv7/start.o
 .rel.text.do_mmc_erase
                0x00000000178644c8       0x30 arch/arm/cpu/armv7/start.o
 .rel.text.do_mmc_write
                0x00000000178644f8       0x30 arch/arm/cpu/armv7/start.o
 .rel.text.do_mmc_read
                0x0000000017864528       0x28 arch/arm/cpu/armv7/start.o
 .rel.text.do_mmcinfo
                0x0000000017864550       0xf8 arch/arm/cpu/armv7/start.o
 .rel.text.do_mmc_setdsr
                0x0000000017864648       0x28 arch/arm/cpu/armv7/start.o
 .rel.text.cpu_cmd
                0x0000000017864670       0x28 arch/arm/cpu/armv7/start.o
 .rel.text.netboot_common
                0x0000000017864698       0x98 arch/arm/cpu/armv7/start.o
 .rel.text.do_ping
                0x0000000017864730       0x18 arch/arm/cpu/armv7/start.o
 .rel.text.pci_cfg_modify.isra.0
                0x0000000017864748       0x30 arch/arm/cpu/armv7/start.o
 .rel.text.pci_header_show_brief
                0x0000000017864778        0x8 arch/arm/cpu/armv7/start.o
 .rel.text.pci_header_show
                0x0000000017864780      0x1e8 arch/arm/cpu/armv7/start.o
 .rel.text.pciinfo
                0x0000000017864968       0x28 arch/arm/cpu/armv7/start.o
 .rel.text.do_pci
                0x0000000017864990       0x28 arch/arm/cpu/armv7/start.o
 .rel.text.do_spi_flash
                0x00000000178649b8       0xa8 arch/arm/cpu/armv7/start.o
 .rel.text.do_setexpr
                0x0000000017864a60        0x8 arch/arm/cpu/armv7/start.o
 .rel.text.do_test
                0x0000000017864a68       0x70 arch/arm/cpu/armv7/start.o
 .rel.text.usb_get_class_desc
                0x0000000017864ad8       0x50 arch/arm/cpu/armv7/start.o
 .rel.text.usb_display_class_sub
                0x0000000017864b28       0xc8 arch/arm/cpu/armv7/start.o
 .rel.text.usb_show_tree_graph
                0x0000000017864bf0       0x48 arch/arm/cpu/armv7/start.o
 .rel.text.usb_display_string
                0x0000000017864c38        0x8 arch/arm/cpu/armv7/start.o
 .rel.text.usb_display_config
                0x0000000017864c40       0xa8 arch/arm/cpu/armv7/start.o
 .rel.text.do_usbboot
                0x0000000017864ce8        0x8 arch/arm/cpu/armv7/start.o
 .rel.text.do_usb_start
                0x0000000017864cf0       0x10 arch/arm/cpu/armv7/start.o
 .rel.text.usb_display_desc.part.3
                0x0000000017864d00       0x38 arch/arm/cpu/armv7/start.o
 .rel.text.do_usb
                0x0000000017864d38      0x170 arch/arm/cpu/armv7/start.o
 .rel.text.usb_stop
                0x0000000017864ea8       0x18 arch/arm/cpu/armv7/start.o
 .rel.text.usb_disable_asynch
                0x0000000017864ec0        0x8 arch/arm/cpu/armv7/start.o
 .rel.text.usb_control_msg
                0x0000000017864ec8        0x8 arch/arm/cpu/armv7/start.o
 .rel.text.usb_string_sub
                0x0000000017864ed0        0x8 arch/arm/cpu/armv7/start.o
 .rel.text.usb_get_configuration_no
                0x0000000017864ed8       0x20 arch/arm/cpu/armv7/start.o
 .rel.text.usb_set_interface
                0x0000000017864ef8        0x8 arch/arm/cpu/armv7/start.o
 .rel.text.usb_get_dev_index
                0x0000000017864f00        0x8 arch/arm/cpu/armv7/start.o
 .rel.text.usb_alloc_new_device
                0x0000000017864f08       0x18 arch/arm/cpu/armv7/start.o
 .rel.text.usb_free_device
                0x0000000017864f20       0x10 arch/arm/cpu/armv7/start.o
 .rel.text.usb_new_device
                0x0000000017864f30       0x98 arch/arm/cpu/armv7/start.o
 .rel.text.usb_init
                0x0000000017864fc8       0x58 arch/arm/cpu/armv7/start.o
 .rel.text.usb_hub_reset
                0x0000000017865020        0x8 arch/arm/cpu/armv7/start.o
 .rel.text.usb_hub_port_connect_change
                0x0000000017865028        0x8 arch/arm/cpu/armv7/start.o
 .rel.text.usb_hub_configure
                0x0000000017865030       0x18 arch/arm/cpu/armv7/start.o
 .rel.text.usb_stor_BBB_transport
                0x0000000017865048       0x10 arch/arm/cpu/armv7/start.o
 .rel.text.usb_stor_CB_comdat
                0x0000000017865058        0x8 arch/arm/cpu/armv7/start.o
 .rel.text.usb_stor_CBI_get_status.isra.4
                0x0000000017865060        0x8 arch/arm/cpu/armv7/start.o
 .rel.text.usb_stor_CB_transport
                0x0000000017865068       0x10 arch/arm/cpu/armv7/start.o
 .rel.text.usb_request_sense.constprop.10
                0x0000000017865078        0x8 arch/arm/cpu/armv7/start.o
 .rel.text.usb_stor_write
                0x0000000017865080       0x10 arch/arm/cpu/armv7/start.o
 .rel.text.usb_stor_read
                0x0000000017865090       0x10 arch/arm/cpu/armv7/start.o
 .rel.text.usb_stor_get_dev
                0x00000000178650a0       0x10 arch/arm/cpu/armv7/start.o
 .rel.text.usb_stor_info
                0x00000000178650b0       0x20 arch/arm/cpu/armv7/start.o
 .rel.text.usb_storage_probe
                0x00000000178650d0       0x38 arch/arm/cpu/armv7/start.o
 .rel.text.usb_stor_get_info
                0x0000000017865108       0x20 arch/arm/cpu/armv7/start.o
 .rel.text.usb_stor_scan
                0x0000000017865128       0x40 arch/arm/cpu/armv7/start.o
 .rel.text.ums_init
                0x0000000017865168       0x10 arch/arm/cpu/armv7/start.o
 .rel.text.do_usb_mass_storage
                0x0000000017865178       0x70 arch/arm/cpu/armv7/start.o
 .rel.text.do_imgextract
                0x00000000178651e8       0x90 arch/arm/cpu/armv7/start.o
 .rel.text.splash_get_pos
                0x0000000017865278        0x8 arch/arm/cpu/armv7/start.o
 .rel.text.do_env_delete
                0x0000000017865280       0x10 arch/arm/cpu/armv7/start.o
 .rel.text.do_env_exists
                0x0000000017865290        0x8 arch/arm/cpu/armv7/start.o
 .rel.text.do_env_save
                0x0000000017865298       0x10 arch/arm/cpu/armv7/start.o
 .rel.text.do_env
                0x00000000178652a8        0x8 arch/arm/cpu/armv7/start.o
 .rel.text.env_print
                0x00000000178652b0       0x18 arch/arm/cpu/armv7/start.o
 .rel.text.do_env_print
                0x00000000178652c8       0x10 arch/arm/cpu/armv7/start.o
 .rel.text.do_env_import
                0x00000000178652d8       0x58 arch/arm/cpu/armv7/start.o
 .rel.text.do_env_default
                0x0000000017865330        0x8 arch/arm/cpu/armv7/start.o
 .rel.text._do_env_set.isra.1
                0x0000000017865338       0x30 arch/arm/cpu/armv7/start.o
 .rel.text.get_env_id
                0x0000000017865368        0x8 arch/arm/cpu/armv7/start.o
 .rel.text.setenv
                0x0000000017865370        0x8 arch/arm/cpu/armv7/start.o
 .rel.text.setenv_hex
                0x0000000017865378        0x8 arch/arm/cpu/armv7/start.o
 .rel.text.do_env_export
                0x0000000017865380       0x40 arch/arm/cpu/armv7/start.o
 .rel.text.getenv_f
                0x00000000178653c0        0x8 arch/arm/cpu/armv7/start.o
 .rel.text.getenv
                0x00000000178653c8        0x8 arch/arm/cpu/armv7/start.o
 .rel.text.do_env_edit
                0x00000000178653d0       0x10 arch/arm/cpu/armv7/start.o
 .rel.text.env_get_addr
                0x00000000178653e0        0x8 arch/arm/cpu/armv7/start.o
 .rel.text.env_get_char
                0x00000000178653e8        0x8 arch/arm/cpu/armv7/start.o
 .rel.text.set_default_env
                0x00000000178653f0       0x40 arch/arm/cpu/armv7/start.o
 .rel.text.set_default_vars
                0x0000000017865430       0x10 arch/arm/cpu/armv7/start.o
 .rel.text.env_import
                0x0000000017865440       0x38 arch/arm/cpu/armv7/start.o
 .rel.text.env_export
                0x0000000017865478       0x28 arch/arm/cpu/armv7/start.o
 .rel.text.env_relocate
                0x00000000178654a0        0x8 arch/arm/cpu/armv7/start.o
 .rel.text.env_complete
                0x00000000178654a8       0x18 arch/arm/cpu/armv7/start.o
 .rel.text.console_setfile
                0x00000000178654c0       0x30 arch/arm/cpu/armv7/start.o
 .rel.text.puts
                0x00000000178654f0        0x8 arch/arm/cpu/armv7/start.o
 .rel.text.putc
                0x00000000178654f8        0x8 arch/arm/cpu/armv7/start.o
 .rel.text.fgetc
                0x0000000017865500        0x8 arch/arm/cpu/armv7/start.o
 .rel.text.ftstc
                0x0000000017865508        0x8 arch/arm/cpu/armv7/start.o
 .rel.text.fputc
                0x0000000000000000        0x0 arch/arm/cpu/armv7/start.o
 .rel.text.fputs
                0x0000000000000000        0x0 arch/arm/cpu/armv7/start.o
 .rel.text.ctrlc
                0x0000000017865510       0x10 arch/arm/cpu/armv7/start.o
 .rel.text.confirm_yesno
                0x0000000017865520       0x20 arch/arm/cpu/armv7/start.o
 .rel.text.disable_ctrlc
                0x0000000000000000        0x0 arch/arm/cpu/armv7/start.o
 .rel.text.had_ctrlc
                0x0000000017865540        0x8 arch/arm/cpu/armv7/start.o
 .rel.text.clear_ctrlc
                0x0000000017865548        0x8 arch/arm/cpu/armv7/start.o
 .rel.text.on_console
                0x0000000017865550       0x20 arch/arm/cpu/armv7/start.o
 .rel.text.stdio_print_current_devices
                0x0000000017865570       0x40 arch/arm/cpu/armv7/start.o
 .rel.text.console_init_r
                0x00000000178655b0       0x48 arch/arm/cpu/armv7/start.o
 .rel.text.sbrk
                0x00000000178655f8       0x18 arch/arm/cpu/armv7/start.o
 .rel.text.mem_malloc_init
                0x0000000017865610       0x18 arch/arm/cpu/armv7/start.o
 .rel.text.malloc_trim
                0x0000000017865628       0x18 arch/arm/cpu/armv7/start.o
 .rel.text.free
                0x0000000017865640       0x18 arch/arm/cpu/armv7/start.o
 .rel.text.malloc
                0x0000000017865658       0x40 arch/arm/cpu/armv7/start.o
 .rel.text.calloc
                0x0000000017865698        0x8 arch/arm/cpu/armv7/start.o
 .rel.text.realloc
                0x00000000178656a0       0x10 arch/arm/cpu/armv7/start.o
 .rel.text.mallopt
                0x0000000000000000        0x0 arch/arm/cpu/armv7/start.o
 .rel.text.on_loadaddr
                0x00000000178656b0        0x8 arch/arm/cpu/armv7/start.o
 .rel.text.getenv_bootm_low
                0x00000000178656b8        0x8 arch/arm/cpu/armv7/start.o
 .rel.text.getenv_bootm_size
                0x00000000178656c0       0x10 arch/arm/cpu/armv7/start.o
 .rel.text.getenv_bootm_mapsize
                0x00000000178656d0        0x8 arch/arm/cpu/armv7/start.o
 .rel.text.genimg_print_size
                0x00000000178656d8       0x10 arch/arm/cpu/armv7/start.o
 .rel.text.genimg_get_os_name
                0x00000000178656e8       0x10 arch/arm/cpu/armv7/start.o
 .rel.text.genimg_get_arch_name
                0x00000000178656f8       0x10 arch/arm/cpu/armv7/start.o
 .rel.text.genimg_get_type_name
                0x0000000017865708       0x10 arch/arm/cpu/armv7/start.o
 .rel.text.genimg_get_comp_name
                0x0000000017865718       0x10 arch/arm/cpu/armv7/start.o
 .rel.text.image_print_contents
                0x0000000017865728       0x50 arch/arm/cpu/armv7/start.o
 .rel.text.genimg_get_os_id
                0x0000000000000000        0x0 arch/arm/cpu/armv7/start.o
 .rel.text.genimg_get_arch_id
                0x0000000000000000        0x0 arch/arm/cpu/armv7/start.o
 .rel.text.genimg_get_type_id
                0x0000000000000000        0x0 arch/arm/cpu/armv7/start.o
 .rel.text.genimg_get_comp_id
                0x0000000000000000        0x0 arch/arm/cpu/armv7/start.o
 .rel.text.genimg_get_kernel_addr_fit
                0x0000000017865778        0x8 arch/arm/cpu/armv7/start.o
 .rel.text.boot_get_ramdisk
                0x0000000017865780       0x50 arch/arm/cpu/armv7/start.o
 .rel.text.boot_ramdisk_high
                0x00000000178657d0       0x20 arch/arm/cpu/armv7/start.o
 .rel.text.fdt_error
                0x00000000178657f0       0x10 arch/arm/cpu/armv7/start.o
 .rel.text.boot_fdt_add_mem_rsv_regions
                0x0000000017865800        0x8 arch/arm/cpu/armv7/start.o
 .rel.text.boot_relocate_fdt
                0x0000000017865808       0x40 arch/arm/cpu/armv7/start.o
 .rel.text.boot_get_fdt
                0x0000000017865848       0x80 arch/arm/cpu/armv7/start.o
 .rel.text.image_setup_libfdt
                0x00000000178658c8       0x18 arch/arm/cpu/armv7/start.o
 .rel.text.stdio_get_list
                0x00000000178658e0        0x8 arch/arm/cpu/armv7/start.o
 .rel.text.stdio_get_by_name
                0x00000000178658e8        0x8 arch/arm/cpu/armv7/start.o
 .rel.text.stdio_register_dev
                0x00000000178658f0        0x8 arch/arm/cpu/armv7/start.o
 .rel.text.stdio_init_tables
                0x00000000178658f8        0x8 arch/arm/cpu/armv7/start.o
 .rel.text.stdio_add_devices
                0x0000000017865900       0x48 arch/arm/cpu/armv7/start.o
 .rel.text.cli_simple_parse_line
                0x0000000000000000        0x0 arch/arm/cpu/armv7/start.o
 .rel.text.cli_simple_run_command
                0x0000000000000000        0x0 arch/arm/cpu/armv7/start.o
 .rel.text.cli_simple_loop
                0x0000000000000000        0x0 arch/arm/cpu/armv7/start.o
 .rel.text.do_run
                0x0000000017865948        0x8 arch/arm/cpu/armv7/start.o
 .rel.text.delete_char.part.0
                0x0000000017865950       0x10 arch/arm/cpu/armv7/start.o
 .rel.text.cread_add_char
                0x0000000017865960        0x8 arch/arm/cpu/armv7/start.o
 .rel.text.cli_readline_into_buffer
                0x0000000017865968       0xb0 arch/arm/cpu/armv7/start.o
 .rel.text.cli_readline
                0x0000000017865a18        0x8 arch/arm/cpu/armv7/start.o
 .rel.text.find_cmd
                0x0000000017865a20       0x10 arch/arm/cpu/armv7/start.o
 .rel.text.cmd_usage
                0x0000000017865a30       0x18 arch/arm/cpu/armv7/start.o
 .rel.text._do_help
                0x0000000017865a48       0x10 arch/arm/cpu/armv7/start.o
 .rel.text.var_complete
                0x0000000017865a58       0x10 arch/arm/cpu/armv7/start.o
 .rel.text.cmd_auto_complete
                0x0000000017865a68       0x48 arch/arm/cpu/armv7/start.o
 .rel.text.cmd_get_data_size
                0x0000000017865ab0        0x8 arch/arm/cpu/armv7/start.o
 .rel.text.cmd_process
                0x0000000017865ab8       0x18 arch/arm/cpu/armv7/start.o
 .rel.text.cmd_process_error
                0x0000000017865ad0        0x8 arch/arm/cpu/armv7/start.o
 .rel.text.srec_decode
                0x0000000017865ad8       0x50 arch/arm/cpu/armv7/start.o
 .rel.text.xyzModem_get_hdr
                0x0000000017865b28       0x30 arch/arm/cpu/armv7/start.o
 .rel.text.xyzModem_stream_open
                0x0000000017865b58       0x10 arch/arm/cpu/armv7/start.o
 .rel.text.xyzModem_stream_read
                0x0000000017865b68        0x8 arch/arm/cpu/armv7/start.o
 .rel.text.xyzModem_stream_close
                0x0000000017865b70       0x20 arch/arm/cpu/armv7/start.o
 .rel.text.xyzModem_stream_terminate
                0x0000000017865b90        0x8 arch/arm/cpu/armv7/start.o
 .rel.text.xyzModem_error
                0x0000000017865b98       0x10 arch/arm/cpu/armv7/start.o
 .rel.text.common_diskboot
                0x0000000017865ba8       0x28 arch/arm/cpu/armv7/start.o
 .rel.rodata.boot_os
                0x0000000017865bd0       0x30 arch/arm/cpu/armv7/start.o
 .rel.rodata.op_table
                0x0000000017865c00       0x68 arch/arm/cpu/armv7/start.o
 .rel.rodata.reg_4_desc_tbl
                0x0000000017865c68       0x60 arch/arm/cpu/armv7/start.o
 .rel.rodata.desc_and_len_tbl
                0x0000000017865cc8       0x30 arch/arm/cpu/armv7/start.o
 .rel.rodata.reg_5_desc_tbl
                0x0000000017865cf8       0x60 arch/arm/cpu/armv7/start.o
 .rel.rodata.reg_2_desc_tbl
                0x0000000017865d58        0x8 arch/arm/cpu/armv7/start.o
 .rel.rodata.reg_0_5_desc_tbl
                0x0000000017865d60       0x30 arch/arm/cpu/armv7/start.o
 .rel.rodata.reg_3_desc_tbl
                0x0000000017865d90       0x18 arch/arm/cpu/armv7/start.o
 .rel.rodata.reg_0_desc_tbl
                0x0000000017865da8       0x50 arch/arm/cpu/armv7/start.o
 .rel.rodata.reg_1_desc_tbl
                0x0000000017865df8       0x80 arch/arm/cpu/armv7/start.o
 .rel.rodata.op_adv
                0x0000000017865e78       0x80 arch/arm/cpu/armv7/start.o
 .rel.rodata.CSWTCH.27
                0x0000000017865ef8       0x28 arch/arm/cpu/armv7/start.o
 .rel.rodata.uimage_comp
                0x0000000017865f20       0x60 arch/arm/cpu/armv7/start.o
 .rel.rodata.uimage_os
                0x0000000017865f80       0x88 arch/arm/cpu/armv7/start.o
 .rel.rodata.uimage_arch
                0x0000000017866008      0x188 arch/arm/cpu/armv7/start.o
 .rel.rodata.uimage_type
                0x0000000017866190      0x168 arch/arm/cpu/armv7/start.o
 .rel.rodata.CSWTCH.28
                0x00000000178662f8       0x40 arch/arm/cpu/armv7/start.o
 .rel.data.hash_algo
                0x0000000000000000        0x0 arch/arm/cpu/armv7/start.o
 .rel.data.reserved_list
                0x0000000017866338       0x58 arch/arm/cpu/armv7/start.o
 .rel.u_boot_list_2_cmd_2_showvar
                0x0000000017866390       0x20 arch/arm/cpu/armv7/start.o
 .rel.data.init_sequence_f
                0x00000000178663b0      0x130 arch/arm/cpu/armv7/start.o
 .rel.data.init_sequence_r
                0x00000000178664e0       0xd0 arch/arm/cpu/armv7/start.o
 .rel.u_boot_list_2_cmd_2_go
                0x00000000178665b0       0x20 arch/arm/cpu/armv7/start.o
 .rel.u_boot_list_2_cmd_2_reset
                0x00000000178665d0       0x20 arch/arm/cpu/armv7/start.o
 .rel.u_boot_list_2_cmd_2_iminfo
                0x00000000178665f0       0x20 arch/arm/cpu/armv7/start.o
 .rel.u_boot_list_2_cmd_2_bootz
                0x0000000017866610       0x20 arch/arm/cpu/armv7/start.o
 .rel.u_boot_list_2_cmd_2_boot
                0x0000000017866630       0x20 arch/arm/cpu/armv7/start.o
 .rel.u_boot_list_2_cmd_2_bootd
                0x0000000017866650       0x20 arch/arm/cpu/armv7/start.o
 .rel.u_boot_list_2_cmd_2_bootm
                0x0000000017866670       0x20 arch/arm/cpu/armv7/start.o
 .rel.data.cmd_bootm_sub
                0x0000000017866690       0xd8 arch/arm/cpu/armv7/start.o
 .rel.u_boot_list_2_cmd_2_question_mark
                0x0000000017866768       0x20 arch/arm/cpu/armv7/start.o
 .rel.u_boot_list_2_cmd_2_help
                0x0000000017866788       0x20 arch/arm/cpu/armv7/start.o
 .rel.u_boot_list_2_cmd_2_version
                0x00000000178667a8       0x20 arch/arm/cpu/armv7/start.o
 .rel.u_boot_list_2_env_clbk_2_callbacks
                0x00000000178667c8       0x10 arch/arm/cpu/armv7/start.o
 .rel.u_boot_list_2_env_clbk_2_flags
                0x00000000178667d8       0x10 arch/arm/cpu/armv7/start.o
 .rel.data.env_name_spec
                0x00000000178667e8        0x8 arch/arm/cpu/armv7/start.o
 .rel.u_boot_list_2_cmd_2_source
                0x00000000178667f0       0x20 arch/arm/cpu/armv7/start.o
 .rel.u_boot_list_2_cmd_2_bdinfo
                0x0000000017866810       0x20 arch/arm/cpu/armv7/start.o
 .rel.u_boot_list_2_cmd_2_icache
                0x0000000017866830       0x20 arch/arm/cpu/armv7/start.o
 .rel.u_boot_list_2_cmd_2_dcache
                0x0000000017866850       0x20 arch/arm/cpu/armv7/start.o
 .rel.u_boot_list_2_cmd_2_coninfo
                0x0000000017866870       0x20 arch/arm/cpu/armv7/start.o
 .rel.u_boot_list_2_cmd_2_echo
                0x0000000017866890       0x20 arch/arm/cpu/armv7/start.o
 .rel.u_boot_list_2_cmd_2_exit
                0x00000000178668b0       0x20 arch/arm/cpu/armv7/start.o
 .rel.u_boot_list_2_cmd_2_ext4load
                0x00000000178668d0       0x20 arch/arm/cpu/armv7/start.o
 .rel.u_boot_list_2_cmd_2_ext4write
                0x00000000178668f0       0x20 arch/arm/cpu/armv7/start.o
 .rel.u_boot_list_2_cmd_2_ext4ls
                0x0000000017866910       0x20 arch/arm/cpu/armv7/start.o
 .rel.u_boot_list_2_cmd_2_ext4size
                0x0000000017866930       0x20 arch/arm/cpu/armv7/start.o
 .rel.u_boot_list_2_cmd_2_ext2ls
                0x0000000017866950       0x20 arch/arm/cpu/armv7/start.o
 .rel.u_boot_list_2_cmd_2_ext2load
                0x0000000017866970       0x20 arch/arm/cpu/armv7/start.o
 .rel.u_boot_list_2_cmd_2_fatinfo
                0x0000000017866990       0x20 arch/arm/cpu/armv7/start.o
 .rel.u_boot_list_2_cmd_2_fatsize
                0x00000000178669b0       0x20 arch/arm/cpu/armv7/start.o
 .rel.u_boot_list_2_cmd_2_fatload
                0x00000000178669d0       0x20 arch/arm/cpu/armv7/start.o
 .rel.u_boot_list_2_cmd_2_fatls
                0x00000000178669f0       0x20 arch/arm/cpu/armv7/start.o
 .rel.u_boot_list_2_cmd_2_fdt
                0x0000000017866a10       0x20 arch/arm/cpu/armv7/start.o
 .rel.data.of_busses
                0x0000000000000000        0x0 arch/arm/cpu/armv7/start.o
 .rel.u_boot_list_2_cmd_2_protect
                0x0000000017866a30       0x20 arch/arm/cpu/armv7/start.o
 .rel.u_boot_list_2_cmd_2_erase
                0x0000000017866a50       0x20 arch/arm/cpu/armv7/start.o
 .rel.u_boot_list_2_cmd_2_flinfo
                0x0000000017866a70       0x20 arch/arm/cpu/armv7/start.o
 .rel.u_boot_list_2_cmd_2_fuse
                0x0000000017866a90       0x20 arch/arm/cpu/armv7/start.o
 .rel.u_boot_list_2_cmd_2_i2c
                0x0000000017866ab0       0x20 arch/arm/cpu/armv7/start.o
 .rel.data.cmd_i2c_sub
                0x0000000017866ad0      0x1a0 arch/arm/cpu/armv7/start.o
 .rel.u_boot_list_2_cmd_2_itest
                0x0000000017866c70       0x20 arch/arm/cpu/armv7/start.o
 .rel.u_boot_list_2_cmd_2_loadb
                0x0000000017866c90       0x20 arch/arm/cpu/armv7/start.o
 .rel.u_boot_list_2_cmd_2_loadx
                0x0000000017866cb0       0x20 arch/arm/cpu/armv7/start.o
 .rel.u_boot_list_2_cmd_2_loady
                0x0000000017866cd0       0x20 arch/arm/cpu/armv7/start.o
 .rel.u_boot_list_2_cmd_2_loads
                0x0000000017866cf0       0x20 arch/arm/cpu/armv7/start.o
 .rel.u_boot_list_2_cmd_2_base
                0x0000000017866d10       0x20 arch/arm/cpu/armv7/start.o
 .rel.u_boot_list_2_cmd_2_cmp
                0x0000000017866d30       0x20 arch/arm/cpu/armv7/start.o
 .rel.u_boot_list_2_cmd_2_nm
                0x0000000017866d50       0x20 arch/arm/cpu/armv7/start.o
 .rel.u_boot_list_2_cmd_2_loop
                0x0000000017866d70       0x20 arch/arm/cpu/armv7/start.o
 .rel.u_boot_list_2_cmd_2_cp
                0x0000000017866d90       0x20 arch/arm/cpu/armv7/start.o
 .rel.u_boot_list_2_cmd_2_mm
                0x0000000017866db0       0x20 arch/arm/cpu/armv7/start.o
 .rel.u_boot_list_2_cmd_2_crc32
                0x0000000017866dd0       0x20 arch/arm/cpu/armv7/start.o
 .rel.u_boot_list_2_cmd_2_md
                0x0000000017866df0       0x20 arch/arm/cpu/armv7/start.o
 .rel.u_boot_list_2_cmd_2_mw
                0x0000000017866e10       0x20 arch/arm/cpu/armv7/start.o
 .rel.u_boot_list_2_cmd_2_mii
                0x0000000017866e30       0x20 arch/arm/cpu/armv7/start.o
 .rel.u_boot_list_2_cmd_2_mdio
                0x0000000017866e50       0x20 arch/arm/cpu/armv7/start.o
 .rel.u_boot_list_2_cmd_2_sleep
                0x0000000017866e70       0x20 arch/arm/cpu/armv7/start.o
 .rel.u_boot_list_2_cmd_2_mmcinfo
                0x0000000017866e90       0x20 arch/arm/cpu/armv7/start.o
 .rel.data.cmd_mmc
                0x0000000017866eb0      0x1c0 arch/arm/cpu/armv7/start.o
 .rel.u_boot_list_2_cmd_2_mmc
                0x0000000017867070       0x20 arch/arm/cpu/armv7/start.o
 .rel.u_boot_list_2_cmd_2_cpu
                0x0000000017867090       0x20 arch/arm/cpu/armv7/start.o
 .rel.u_boot_list_2_cmd_2_ping
                0x00000000178670b0       0x20 arch/arm/cpu/armv7/start.o
 .rel.u_boot_list_2_cmd_2_dhcp
                0x00000000178670d0       0x20 arch/arm/cpu/armv7/start.o
 .rel.u_boot_list_2_cmd_2_bootp
                0x00000000178670f0       0x20 arch/arm/cpu/armv7/start.o
 .rel.u_boot_list_2_cmd_2_tftpboot
                0x0000000017867110       0x20 arch/arm/cpu/armv7/start.o
 .rel.u_boot_list_2_cmd_2_nfs
                0x0000000017867130       0x20 arch/arm/cpu/armv7/start.o
 .rel.u_boot_list_2_cmd_2_pci
                0x0000000017867150       0x20 arch/arm/cpu/armv7/start.o
 .rel.u_boot_list_2_cmd_2_sf
                0x0000000017867170       0x20 arch/arm/cpu/armv7/start.o
 .rel.u_boot_list_2_cmd_2_setexpr
                0x0000000017867190       0x20 arch/arm/cpu/armv7/start.o
 .rel.u_boot_list_2_cmd_2_test
                0x00000000178671b0       0x20 arch/arm/cpu/armv7/start.o
 .rel.u_boot_list_2_cmd_2_true
                0x00000000178671d0       0x18 arch/arm/cpu/armv7/start.o
 .rel.u_boot_list_2_cmd_2_false
                0x00000000178671e8       0x18 arch/arm/cpu/armv7/start.o
 .rel.u_boot_list_2_cmd_2_usb
                0x0000000017867200       0x20 arch/arm/cpu/armv7/start.o
 .rel.u_boot_list_2_cmd_2_usbboot
                0x0000000017867220       0x20 arch/arm/cpu/armv7/start.o
 .rel.u_boot_list_2_cmd_2_ums
                0x0000000017867240       0x20 arch/arm/cpu/armv7/start.o
 .rel.data.ums_dev
                0x0000000017867260       0x18 arch/arm/cpu/armv7/start.o
 .rel.u_boot_list_2_cmd_2_imxtract
                0x0000000017867278       0x20 arch/arm/cpu/armv7/start.o
 .rel.u_boot_list_2_cmd_2_setenv
                0x0000000017867298       0x28 arch/arm/cpu/armv7/start.o
 .rel.u_boot_list_2_cmd_2_env
                0x00000000178672c0       0x20 arch/arm/cpu/armv7/start.o
 .rel.u_boot_list_2_cmd_2_saveenv
                0x00000000178672e0       0x20 arch/arm/cpu/armv7/start.o
 .rel.data.cmd_env_sub
                0x0000000017867300      0x140 arch/arm/cpu/armv7/start.o
 .rel.u_boot_list_2_cmd_2_printenv
                0x0000000017867440       0x28 arch/arm/cpu/armv7/start.o
 .rel.u_boot_list_2_cmd_2_editenv
                0x0000000017867468       0x28 arch/arm/cpu/armv7/start.o
 .rel.u_boot_list_2_cmd_2_run
                0x0000000017867490       0x28 arch/arm/cpu/armv7/start.o
 .rel.data.env_htab
                0x00000000178674b8        0x8 arch/arm/cpu/armv7/start.o
 .rel.u_boot_list_2_env_clbk_2_console
                0x00000000178674c0       0x10 arch/arm/cpu/armv7/start.o
 .rel.data.av_  0x00000000178674d0      0x800 arch/arm/cpu/armv7/start.o
 .rel.u_boot_list_2_env_clbk_2_loadaddr
                0x0000000017867cd0       0x10 arch/arm/cpu/armv7/start.o
 .rel.data.stdio_names
                0x0000000017867ce0       0x18 arch/arm/cpu/armv7/start.o
 .rel.text.get_dev_hwpart
                0x0000000017867cf8        0x8 arch/arm/cpu/armv7/start.o
 .rel.text.dev_print
                0x0000000017867d00      0x110 arch/arm/cpu/armv7/start.o
 .rel.text.print_part
                0x0000000017867e10       0xb0 arch/arm/cpu/armv7/start.o
 .rel.text.get_device
                0x0000000017867ec0       0x18 arch/arm/cpu/armv7/start.o
 .rel.text.get_device_and_partition
                0x0000000017867ed8       0x70 arch/arm/cpu/armv7/start.o
 .rel.text.test_block_type
                0x0000000017867f48       0x10 arch/arm/cpu/armv7/start.o
 .rel.text.print_partition_extended
                0x0000000017867f58       0x30 arch/arm/cpu/armv7/start.o
 .rel.text.get_partition_info_extended.constprop.2
                0x0000000017867f88       0x80 arch/arm/cpu/armv7/start.o
 .rel.text.print_part_dos
                0x0000000017868008        0x8 arch/arm/cpu/armv7/start.o
 .rel.rodata.block_drvr
                0x0000000017868010       0x28 arch/arm/cpu/armv7/start.o
 .rel.text.device_bind
                0x0000000017868038       0x10 arch/arm/cpu/armv7/start.o
 .rel.text.device_probe_child
                0x0000000017868048       0x10 arch/arm/cpu/armv7/start.o
 .rel.text.dev_get_platdata
                0x0000000017868058       0x10 arch/arm/cpu/armv7/start.o
 .rel.text.dev_get_parent_platdata
                0x0000000000000000        0x0 arch/arm/cpu/armv7/start.o
 .rel.text.dev_get_priv
                0x0000000017868068       0x10 arch/arm/cpu/armv7/start.o
 .rel.text.dev_get_parentdata
                0x0000000000000000        0x0 arch/arm/cpu/armv7/start.o
 .rel.text.lists_driver_lookup_name
                0x0000000017868078       0x10 arch/arm/cpu/armv7/start.o
 .rel.text.lists_uclass_lookup
                0x0000000017868088       0x10 arch/arm/cpu/armv7/start.o
 .rel.text.lists_bind_drivers
                0x0000000017868098       0x18 arch/arm/cpu/armv7/start.o
 .rel.text.device_bind_driver
                0x0000000000000000        0x0 arch/arm/cpu/armv7/start.o
 .rel.text.dm_root
                0x00000000178680b0        0x8 arch/arm/cpu/armv7/start.o
 .rel.text.dm_init
                0x00000000178680b8       0x10 arch/arm/cpu/armv7/start.o
 .rel.text.dm_scan_platdata
                0x00000000178680c8        0x8 arch/arm/cpu/armv7/start.o
 .rel.text.uclass_get
                0x00000000178680d0        0x8 arch/arm/cpu/armv7/start.o
 .rel.text.uclass_resolve_seq
                0x00000000178680d8        0x8 arch/arm/cpu/armv7/start.o
 .rel.text.device_remove
                0x00000000178680e0       0x20 arch/arm/cpu/armv7/start.o
 .rel.text.finish_access
                0x0000000017868100        0x8 arch/arm/cpu/armv7/start.o
 .rel.text.prepare_access
                0x0000000017868108        0x8 arch/arm/cpu/armv7/start.o
 .rel.text.fuse_read
                0x0000000017868110        0x8 arch/arm/cpu/armv7/start.o
 .rel.text.fuse_sense
                0x0000000017868118        0x8 arch/arm/cpu/armv7/start.o
 .rel.text.fuse_prog
                0x0000000017868120        0x8 arch/arm/cpu/armv7/start.o
 .rel.text.fuse_override
                0x0000000017868128        0x8 arch/arm/cpu/armv7/start.o
 .rel.text.video_drawchars
                0x0000000017868130       0x80 arch/arm/cpu/armv7/start.o
 .rel.text.draw_bitmap
                0x00000000178681b0       0x28 arch/arm/cpu/armv7/start.o
 .rel.text.console_newline.constprop.1
                0x00000000178681d8       0x30 arch/arm/cpu/armv7/start.o
 .rel.text.video_putc
                0x0000000017868208       0x68 arch/arm/cpu/armv7/start.o
 .rel.text.video_puts
                0x0000000017868270       0x10 arch/arm/cpu/armv7/start.o
 .rel.text.display_rle8_bitmap
                0x0000000017868280       0x40 arch/arm/cpu/armv7/start.o
 .rel.text.plot_logo_or_black
                0x00000000178682c0       0x50 arch/arm/cpu/armv7/start.o
 .rel.text.do_clrlogo
                0x0000000017868310       0x20 arch/arm/cpu/armv7/start.o
 .rel.text.video_display_bitmap
                0x0000000017868330       0x98 arch/arm/cpu/armv7/start.o
 .rel.text.video_clear
                0x00000000178683c8       0x18 arch/arm/cpu/armv7/start.o
 .rel.text.drv_video_init
                0x00000000178683e0       0xc0 arch/arm/cpu/armv7/start.o
 .rel.text.video_position_cursor
                0x0000000000000000        0x0 arch/arm/cpu/armv7/start.o
 .rel.text.video_get_pixel_width
                0x0000000000000000        0x0 arch/arm/cpu/armv7/start.o
 .rel.text.video_get_pixel_height
                0x0000000000000000        0x0 arch/arm/cpu/armv7/start.o
 .rel.text.video_get_screen_rows
                0x0000000000000000        0x0 arch/arm/cpu/armv7/start.o
 .rel.text.video_get_screen_columns
                0x0000000000000000        0x0 arch/arm/cpu/armv7/start.o
 .rel.text.mxcfb_map_video_memory
                0x00000000178684a0        0x8 arch/arm/cpu/armv7/start.o
 .rel.text.ipuv3_fb_shutdown
                0x00000000178684a8        0x8 arch/arm/cpu/armv7/start.o
 .rel.text.video_hw_init
                0x00000000178684b0       0x60 arch/arm/cpu/armv7/start.o
 .rel.text.ipuv3_fb_init
                0x0000000017868510       0x18 arch/arm/cpu/armv7/start.o
 .rel.text.ipu_pixel_clk_set_parent
                0x0000000017868528       0x18 arch/arm/cpu/armv7/start.o
 .rel.text.ipu_probe
                0x0000000017868540       0x50 arch/arm/cpu/armv7/start.o
 .rel.text.ipu_init_channel
                0x0000000017868590       0x50 arch/arm/cpu/armv7/start.o
 .rel.text.ipu_uninit_channel
                0x00000000178685e0       0x48 arch/arm/cpu/armv7/start.o
 .rel.text.ipu_enable_channel
                0x0000000017868628       0x10 arch/arm/cpu/armv7/start.o
 .rel.text.ipu_disable_channel
                0x0000000017868638        0x8 arch/arm/cpu/armv7/start.o
 .rel.text.ipu_init_channel_buffer
                0x0000000017868640       0x28 arch/arm/cpu/armv7/start.o
 .rel.text.rgb_to_yuv
                0x0000000017868668        0x8 arch/arm/cpu/armv7/start.o
 .rel.text.ipu_dc_link_event
                0x0000000017868670       0xb0 arch/arm/cpu/armv7/start.o
 .rel.text.ipu_di_sync_config.constprop.3
                0x0000000017868720        0x8 arch/arm/cpu/armv7/start.o
 .rel.text.ipu_dmfc_init
                0x0000000017868728       0x38 arch/arm/cpu/armv7/start.o
 .rel.text.ipu_dmfc_set_wait4eot
                0x0000000017868760       0x28 arch/arm/cpu/armv7/start.o
 .rel.text.ipu_dp_init
                0x0000000017868788       0x20 arch/arm/cpu/armv7/start.o
 .rel.text.ipu_dp_uninit
                0x00000000178687a8       0x18 arch/arm/cpu/armv7/start.o
 .rel.text.ipu_dc_init
                0x00000000178687c0       0xb0 arch/arm/cpu/armv7/start.o
 .rel.text.ipu_dp_dc_enable
                0x0000000017868870       0xc8 arch/arm/cpu/armv7/start.o
 .rel.text.ipu_dp_dc_disable
                0x0000000017868938      0x108 arch/arm/cpu/armv7/start.o
 .rel.text.ipu_init_sync_panel
                0x0000000017868a40       0x38 arch/arm/cpu/armv7/start.o
 .rel.text.ipu_disp_set_global_alpha
                0x0000000017868a78       0x10 arch/arm/cpu/armv7/start.o
 .rel.text.ipu_disp_set_color_key
                0x0000000017868a88       0x28 arch/arm/cpu/armv7/start.o
 .rel.text.input_send_keycodes
                0x0000000000000000        0x0 arch/arm/cpu/armv7/start.o
 .rel.text.input_init
                0x0000000000000000        0x0 arch/arm/cpu/armv7/start.o
 .rel.text.input_stdio_register
                0x0000000000000000        0x0 arch/arm/cpu/armv7/start.o
 .rel.text.imx_thermal_get_temp
                0x0000000017868ab0        0x8 arch/arm/cpu/armv7/start.o
 .rel.text.imx_thermal_probe
                0x0000000017868ab8        0x8 arch/arm/cpu/armv7/start.o
 .rel.rodata.root_info
                0x0000000017868ac0        0x8 arch/arm/cpu/armv7/start.o
 .rel.rodata.dp_csc_array
                0x0000000017868ac8       0x50 arch/arm/cpu/armv7/start.o
 .rel.rodata.kbd_to_ansi364
                0x0000000000000000        0x0 arch/arm/cpu/armv7/start.o
 .rel.rodata.imx_thermal_ops
                0x0000000017868b18        0x8 arch/arm/cpu/armv7/start.o
 .rel.u_boot_list_2_driver_2_root_driver
                0x0000000017868b20        0x8 arch/arm/cpu/armv7/start.o
 .rel.u_boot_list_2_uclass_2_root
                0x0000000017868b28        0x8 arch/arm/cpu/armv7/start.o
 .rel.u_boot_list_2_cmd_2_clrlogo
                0x0000000017868b30       0x20 arch/arm/cpu/armv7/start.o
 .rel.data.ldb_clk
                0x0000000017868b50        0x8 arch/arm/cpu/armv7/start.o
 .rel.data.ipu_clk
                0x0000000017868b58       0x18 arch/arm/cpu/armv7/start.o
 .rel.data.pixel_clk
                0x0000000017868b70       0x70 arch/arm/cpu/armv7/start.o
 .rel.u_boot_list_2_uclass_2_thermal
                0x0000000017868be0        0x8 arch/arm/cpu/armv7/start.o
 .rel.u_boot_list_2_driver_2_imx_thermal
                0x0000000017868be8       0x18 arch/arm/cpu/armv7/start.o
 .rel.text.gpio_set_value
                0x0000000017868c00        0x8 arch/arm/cpu/armv7/start.o
 .rel.text.gpio_get_value
                0x0000000017868c08        0x8 arch/arm/cpu/armv7/start.o
 .rel.text.gpio_direction_input
                0x0000000017868c10        0x8 arch/arm/cpu/armv7/start.o
 .rel.text.gpio_direction_output
                0x0000000017868c18        0x8 arch/arm/cpu/armv7/start.o
 .rel.text.i2c_get_adapter
                0x0000000017868c20       0x18 arch/arm/cpu/armv7/start.o
 .rel.text.i2c_init_bus
                0x0000000017868c38       0x10 arch/arm/cpu/armv7/start.o
 .rel.text.i2c_set_bus_num
                0x0000000017868c48       0x18 arch/arm/cpu/armv7/start.o
 .rel.text.wait_for_sr_state
                0x0000000017868c60       0x18 arch/arm/cpu/armv7/start.o
 .rel.text.i2c_imx_get_clk
                0x0000000017868c78        0x8 arch/arm/cpu/armv7/start.o
 .rel.text.i2c_imx_stop
                0x0000000017868c80       0x10 arch/arm/cpu/armv7/start.o
 .rel.text.i2c_init_transfer
                0x0000000017868c90       0x20 arch/arm/cpu/armv7/start.o
 .rel.text.mxc_i2c_set_bus_speed
                0x0000000017868cb0       0x10 arch/arm/cpu/armv7/start.o
 .rel.text.mxc_i2c_read
                0x0000000017868cc0        0x8 arch/arm/cpu/armv7/start.o
 .rel.text.mxc_i2c_write
                0x0000000017868cc8        0x8 arch/arm/cpu/armv7/start.o
 .rel.text.mxc_i2c_probe
                0x0000000017868cd0        0x8 arch/arm/cpu/armv7/start.o
 .rel.text.i2c_get_base
                0x0000000000000000        0x0 arch/arm/cpu/armv7/start.o
 .rel.text.bus_i2c_init
                0x0000000017868cd8        0x8 arch/arm/cpu/armv7/start.o
 .rel.text.mxc_i2c_init
                0x0000000017868ce0        0x8 arch/arm/cpu/armv7/start.o
 .rel.u_boot_list_2_i2c_2_mxc0
                0x0000000017868ce8       0x30 arch/arm/cpu/armv7/start.o
 .rel.u_boot_list_2_i2c_2_mxc1
                0x0000000017868d18       0x30 arch/arm/cpu/armv7/start.o
 .rel.u_boot_list_2_i2c_2_mxc2
                0x0000000017868d48       0x30 arch/arm/cpu/armv7/start.o
 .rel.text.esdhc_send_cmd
                0x0000000017868d78       0x20 arch/arm/cpu/armv7/start.o
 .rel.text.fsl_esdhc_initialize
                0x0000000017868d98       0x20 arch/arm/cpu/armv7/start.o
 .rel.text.fdt_fixup_esdhc
                0x0000000000000000        0x0 arch/arm/cpu/armv7/start.o
 .rel.text.mmc_set_capacity
                0x0000000017868db8       0x40 arch/arm/cpu/armv7/start.o
 .rel.text.mmc_send_status
                0x0000000017868df8       0x10 arch/arm/cpu/armv7/start.o
 .rel.text.find_mmc_device
                0x0000000017868e08       0x10 arch/arm/cpu/armv7/start.o
 .rel.text.mmc_bread
                0x0000000017868e18       0x10 arch/arm/cpu/armv7/start.o
 .rel.text.mmc_select_hwpart
                0x0000000017868e28        0x8 arch/arm/cpu/armv7/start.o
 .rel.text.mmc_hwpart_config
                0x0000000017868e30       0x48 arch/arm/cpu/armv7/start.o
 .rel.text.mmc_startup
                0x0000000017868e78       0xa8 arch/arm/cpu/armv7/start.o
 .rel.text.mmc_register
                0x0000000000000000        0x0 arch/arm/cpu/armv7/start.o
 .rel.text.mmc_create
                0x0000000017868f20       0x28 arch/arm/cpu/armv7/start.o
 .rel.text.mmc_start_init
                0x0000000017868f48       0x10 arch/arm/cpu/armv7/start.o
 .rel.text.print_mmc_devices
                0x0000000017868f58       0x40 arch/arm/cpu/armv7/start.o
 .rel.text.get_mmc_num
                0x0000000017868f98        0x8 arch/arm/cpu/armv7/start.o
 .rel.text.mmc_initialize
                0x0000000017868fa0       0x10 arch/arm/cpu/armv7/start.o
 .rel.text.mmc_berase
                0x0000000017868fb0       0x10 arch/arm/cpu/armv7/start.o
 .rel.text.mmc_bwrite
                0x0000000017868fc0       0x18 arch/arm/cpu/armv7/start.o
 .rel.rodata.esdhc_ops
                0x0000000017868fd8       0x20 arch/arm/cpu/armv7/start.o
 .rel.text.spi_flash_probe_slave
                0x0000000017868ff8       0xa0 arch/arm/cpu/armv7/start.o
 .rel.rodata.spi_flash_params_table
                0x0000000017869098       0x58 arch/arm/cpu/armv7/start.o
 .rel.text.fec_phy_write
                0x00000000178690f0        0x8 arch/arm/cpu/armv7/start.o
 .rel.text.fec_phy_read
                0x00000000178690f8        0x8 arch/arm/cpu/armv7/start.o
 .rel.text.fec_send
                0x0000000017869100        0x8 arch/arm/cpu/armv7/start.o
 .rel.text.fec_init
                0x0000000017869108        0x8 arch/arm/cpu/armv7/start.o
 .rel.text.fec_recv
                0x0000000017869110       0x10 arch/arm/cpu/armv7/start.o
 .rel.text.fec_probe
                0x0000000017869120       0x68 arch/arm/cpu/armv7/start.o
 .rel.text.fec_get_miibus
                0x0000000017869188       0x30 arch/arm/cpu/armv7/start.o
 .rel.text.phy_device_create
                0x00000000178691b8       0x18 arch/arm/cpu/armv7/start.o
 .rel.text.get_phy_device_by_mask
                0x00000000178691d0        0x8 arch/arm/cpu/armv7/start.o
 .rel.text.genphy_update_link
                0x00000000178691d8       0x28 arch/arm/cpu/armv7/start.o
 .rel.text.phy_register
                0x0000000017869200        0x8 arch/arm/cpu/armv7/start.o
 .rel.text.phy_reset
                0x0000000017869208        0x8 arch/arm/cpu/armv7/start.o
 .rel.text.phy_connect_dev
                0x0000000017869210        0x8 arch/arm/cpu/armv7/start.o
 .rel.text.phy_connect
                0x0000000000000000        0x0 arch/arm/cpu/armv7/start.o
 .rel.text.ksz9021_config
                0x0000000017869218        0x8 arch/arm/cpu/armv7/start.o
 .rel.text.phy_micrel_init
                0x0000000017869220       0x20 arch/arm/cpu/armv7/start.o
 .rel.data.phy_drivers
                0x0000000017869240       0x10 arch/arm/cpu/armv7/start.o
 .rel.data.genphy_driver
                0x0000000017869250       0x20 arch/arm/cpu/armv7/start.o
 .rel.data.ksz8895_driver
                0x0000000017869270       0x20 arch/arm/cpu/armv7/start.o
 .rel.data.KSZ804_driver
                0x0000000017869290       0x20 arch/arm/cpu/armv7/start.o
 .rel.data.ksz9021_driver
                0x00000000178692b0       0x30 arch/arm/cpu/armv7/start.o
 .rel.data.ksz9031_driver
                0x00000000178692e0       0x30 arch/arm/cpu/armv7/start.o
 .rel.text.pci_get_hose_head
                0x0000000017869310        0x8 arch/arm/cpu/armv7/start.o
 .rel.text.pci_register_hose
                0x0000000017869318        0x8 arch/arm/cpu/armv7/start.o
 .rel.text.pci_bus_to_hose
                0x0000000017869320        0x8 arch/arm/cpu/armv7/start.o
 .rel.text.pci_hose_phys_to_bus
                0x0000000000000000        0x0 arch/arm/cpu/armv7/start.o
 .rel.text.pci_hose_bus_to_phys
                0x0000000000000000        0x0 arch/arm/cpu/armv7/start.o
 .rel.text.pci_class_str
                0x0000000017869328       0x98 arch/arm/cpu/armv7/start.o
 .rel.text.pci_hose_scan_bus
                0x00000000178693c0       0x18 arch/arm/cpu/armv7/start.o
 .rel.text.pci_init
                0x00000000178693d8        0x8 arch/arm/cpu/armv7/start.o
 .rel.text.pci_rom_load
                0x0000000000000000        0x0 arch/arm/cpu/armv7/start.o
 .rel.text.pci_run_vga_bios
                0x0000000000000000        0x0 arch/arm/cpu/armv7/start.o
 .rel.text.imx_pcie_read_config
                0x00000000178693e0       0x18 arch/arm/cpu/armv7/start.o
 .rel.text.imx_pcie_write_config
                0x00000000178693f8       0x18 arch/arm/cpu/armv7/start.o
 .rel.text.imx_pcie_init
                0x0000000017869410       0x40 arch/arm/cpu/armv7/start.o
 .rel.text.check_reg
                0x0000000017869450        0x8 arch/arm/cpu/armv7/start.o
 .rel.text.pmic_alloc
                0x0000000000000000        0x0 arch/arm/cpu/armv7/start.o
 .rel.text.pmic_get
                0x0000000017869458        0x8 arch/arm/cpu/armv7/start.o
 .rel.text.power_get_interface
                0x0000000017869460        0x8 arch/arm/cpu/armv7/start.o
 .rel.text.do_pmic
                0x0000000017869468       0x98 arch/arm/cpu/armv7/start.o
 .rel.text.pmic_reg_write
                0x0000000017869500       0x10 arch/arm/cpu/armv7/start.o
 .rel.text.pmic_reg_read
                0x0000000017869510       0x10 arch/arm/cpu/armv7/start.o
 .rel.text.pmic_probe
                0x0000000000000000        0x0 arch/arm/cpu/armv7/start.o
 .rel.u_boot_list_2_cmd_2_pmic
                0x0000000017869520       0x20 arch/arm/cpu/armv7/start.o
 .rel.data.pmic_list
                0x0000000017869540       0x10 arch/arm/cpu/armv7/start.o
 .rel.text.power_pfuze100_init
                0x0000000000000000        0x0 arch/arm/cpu/armv7/start.o
 .rel.text.get_current
                0x0000000017869550       0x10 arch/arm/cpu/armv7/start.o
 .rel.text.serial_register
                0x0000000017869560        0x8 arch/arm/cpu/armv7/start.o
 .rel.text.serial_stdio_init
                0x0000000017869568       0x38 arch/arm/cpu/armv7/start.o
 .rel.text.serial_assign
                0x00000000178695a0       0x10 arch/arm/cpu/armv7/start.o
 .rel.text.serial_reinit_all
                0x0000000000000000        0x0 arch/arm/cpu/armv7/start.o
 .rel.text.on_baudrate
                0x00000000178695b0       0x18 arch/arm/cpu/armv7/start.o
 .rel.text.mxc_serial_initialize
                0x00000000178695c8        0x8 arch/arm/cpu/armv7/start.o
 .rel.text.default_serial_console
                0x00000000178695d0        0x8 arch/arm/cpu/armv7/start.o
 .rel.u_boot_list_2_env_clbk_2_baudrate
                0x00000000178695d8       0x10 arch/arm/cpu/armv7/start.o
 .rel.data.mxc_serial_drv
                0x00000000178695e8       0x30 arch/arm/cpu/armv7/start.o
 .rel.text.spi_set_wordlen
                0x0000000000000000        0x0 arch/arm/cpu/armv7/start.o
 .rel.text.spi_xchg_single
                0x0000000017869618        0x8 arch/arm/cpu/armv7/start.o
 .rel.text.spi_setup_slave
                0x0000000017869620       0x20 arch/arm/cpu/armv7/start.o
 .rel.text.spi_claim_bus
                0x0000000017869640       0x10 arch/arm/cpu/armv7/start.o
 .rel.text.is_eth_dev_on_usb_host
                0x0000000000000000        0x0 arch/arm/cpu/armv7/start.o
 .rel.text.usb_host_eth_scan
                0x0000000017869650       0x40 arch/arm/cpu/armv7/start.o
 .rel.text.asix_init
                0x0000000017869690       0x18 arch/arm/cpu/armv7/start.o
 .rel.text.asix_eth_before_probe
                0x00000000178696a8        0x8 arch/arm/cpu/armv7/start.o
 .rel.text.asix_eth_probe
                0x00000000178696b0        0x8 arch/arm/cpu/armv7/start.o
 .rel.text.asix_eth_get_info
                0x00000000178696b8       0x40 arch/arm/cpu/armv7/start.o
 .rel.rodata.prob_dev
                0x00000000178696f8       0x18 arch/arm/cpu/armv7/start.o
 .rel.text.usb_ep_autoconfig
                0x0000000017869710        0x8 arch/arm/cpu/armv7/start.o
 .rel.text.usb_ep_autoconfig_reset
                0x0000000017869718        0x8 arch/arm/cpu/armv7/start.o
 .rel.text.ci_ep_free_request
                0x0000000017869720        0x8 arch/arm/cpu/armv7/start.o
 .rel.text.ci_ep_alloc_request
                0x0000000017869728        0x8 arch/arm/cpu/armv7/start.o
 .rel.text.ci_flush_qtd
                0x0000000017869730        0x8 arch/arm/cpu/armv7/start.o
 .rel.text.ci_flush_qh
                0x0000000017869738        0x8 arch/arm/cpu/armv7/start.o
 .rel.text.stop_activity
                0x0000000017869740        0x8 arch/arm/cpu/armv7/start.o
 .rel.text.ep_enable
                0x0000000017869748        0x8 arch/arm/cpu/armv7/start.o
 .rel.text.ci_ep_enable
                0x0000000017869750        0x8 arch/arm/cpu/armv7/start.o
 .rel.text.ci_ep_submit_next_request
                0x0000000017869758        0x8 arch/arm/cpu/armv7/start.o
 .rel.text.ci_ep_queue
                0x0000000017869760       0x10 arch/arm/cpu/armv7/start.o
 .rel.text.udc_irq
                0x0000000017869770       0x38 arch/arm/cpu/armv7/start.o
 .rel.text.usb_gadget_handle_interrupts
                0x00000000178697a8        0x8 arch/arm/cpu/armv7/start.o
 .rel.text.udc_disconnect
                0x00000000178697b0        0x8 arch/arm/cpu/armv7/start.o
 .rel.text.ci_pullup
                0x00000000178697b8        0x8 arch/arm/cpu/armv7/start.o
 .rel.text.usb_gadget_register_driver
                0x00000000178697c0       0x28 arch/arm/cpu/armv7/start.o
 .rel.text.usb_gadget_unregister_driver
                0x00000000178697e8        0x8 arch/arm/cpu/armv7/start.o
 .rel.text.dfu_usb_get_reset
                0x0000000000000000        0x0 arch/arm/cpu/armv7/start.o
 .rel.text.composite_suspend
                0x00000000178697f0        0x8 arch/arm/cpu/armv7/start.o
 .rel.text.composite_resume
                0x00000000178697f8        0x8 arch/arm/cpu/armv7/start.o
 .rel.text.composite_unbind
                0x0000000017869800       0x28 arch/arm/cpu/armv7/start.o
 .rel.text.composite_bind
                0x0000000017869828       0x10 arch/arm/cpu/armv7/start.o
 .rel.text.g_dnl_do_config
                0x0000000017869838       0x10 arch/arm/cpu/armv7/start.o
 .rel.text.composite_disconnect
                0x0000000017869848        0x8 arch/arm/cpu/armv7/start.o
 .rel.text.composite_setup
                0x0000000017869850       0xb8 arch/arm/cpu/armv7/start.o
 .rel.text.usb_composite_register
                0x0000000017869908       0x18 arch/arm/cpu/armv7/start.o
 .rel.text.usb_composite_unregister
                0x0000000017869920       0x10 arch/arm/cpu/armv7/start.o
 .rel.text.g_dnl_set_serialnumber
                0x0000000000000000        0x0 arch/arm/cpu/armv7/start.o
 .rel.text.g_dnl_bind
                0x0000000017869930       0x28 arch/arm/cpu/armv7/start.o
 .rel.text.g_dnl_detach
                0x0000000000000000        0x0 arch/arm/cpu/armv7/start.o
 .rel.text.g_dnl_trigger_detach
                0x0000000000000000        0x0 arch/arm/cpu/armv7/start.o
 .rel.text.g_dnl_clear_detach
                0x0000000000000000        0x0 arch/arm/cpu/armv7/start.o
 .rel.text.g_dnl_register
                0x0000000017869958       0x18 arch/arm/cpu/armv7/start.o
 .rel.text.g_dnl_unregister
                0x0000000017869970        0x8 arch/arm/cpu/armv7/start.o
 .rel.text.fsg_setup
                0x0000000017869978       0x10 arch/arm/cpu/armv7/start.o
 .rel.text.sleep_thread.isra.19
                0x0000000017869988       0x68 arch/arm/cpu/armv7/start.o
 .rel.text.do_read
                0x00000000178699f0       0x18 arch/arm/cpu/armv7/start.o
 .rel.text.do_write
                0x0000000017869a08       0x20 arch/arm/cpu/armv7/start.o
 .rel.text.send_status
                0x0000000017869a28       0x10 arch/arm/cpu/armv7/start.o
 .rel.text.check_command.isra.20
                0x0000000017869a38       0x10 arch/arm/cpu/armv7/start.o
 .rel.text.fsg_add
                0x0000000017869a48       0x70 arch/arm/cpu/armv7/start.o
 .rel.text.do_set_interface
                0x0000000017869ab8       0x30 arch/arm/cpu/armv7/start.o
 .rel.text.fsg_main_thread
                0x0000000017869ae8       0x70 arch/arm/cpu/armv7/start.o
 .rel.text.fsg_bind
                0x0000000017869b58       0x38 arch/arm/cpu/armv7/start.o
 .rel.text.fsg_init
                0x0000000017869b90        0x8 arch/arm/cpu/armv7/start.o
 .rel.rodata.ci_ep_init
                0x0000000017869b98       0x20 arch/arm/cpu/armv7/start.o
 .rel.data.ci_ep_ops
                0x0000000017869bb8       0x28 arch/arm/cpu/armv7/start.o
 .rel.data.ci_udc_ops
                0x0000000017869be0        0x8 arch/arm/cpu/armv7/start.o
 .rel.data.controller
                0x0000000017869be8       0x10 arch/arm/cpu/armv7/start.o
 .rel.data.g_dnl_string_tab
                0x0000000017869bf8        0x8 arch/arm/cpu/armv7/start.o
 .rel.data.g_dnl_composite_strings
                0x0000000017869c00        0x8 arch/arm/cpu/armv7/start.o
 .rel.data.g_dnl_driver
                0x0000000017869c08       0x20 arch/arm/cpu/armv7/start.o
 .rel.data.composite_driver
                0x0000000017869c28       0x30 arch/arm/cpu/armv7/start.o
 .rel.data.g_dnl_string_defs
                0x0000000017869c58       0x18 arch/arm/cpu/armv7/start.o
 .rel.data.fsg_stringtab
                0x0000000017869c70        0x8 arch/arm/cpu/armv7/start.o
 .rel.data.fsg_fs_function
                0x0000000017869c78       0x18 arch/arm/cpu/armv7/start.o
 .rel.u_boot_list_2_g_dnl_bind_callbacks_2___usb_function_name_usb_dnl_ums
                0x0000000017869c90       0x10 arch/arm/cpu/armv7/start.o
 .rel.data.fsg_hs_function
                0x0000000017869ca0       0x18 arch/arm/cpu/armv7/start.o
 .rel.data.fsg_strings
                0x0000000017869cb8        0x8 arch/arm/cpu/armv7/start.o
 .rel.data.fsg_strings_array
                0x0000000017869cc0        0x8 arch/arm/cpu/armv7/start.o
 .rel.text.ehci_shutdown
                0x0000000017869cc8        0x8 arch/arm/cpu/armv7/start.o
 .rel.text.ehci_td_buffer
                0x0000000017869cd0        0x8 arch/arm/cpu/armv7/start.o
 .rel.text.ehci_submit_async
                0x0000000017869cd8       0x30 arch/arm/cpu/armv7/start.o
 .rel.text.disable_periodic.isra.2
                0x0000000017869d08        0x8 arch/arm/cpu/armv7/start.o
 .rel.text.enable_periodic.isra.3
                0x0000000017869d10        0x8 arch/arm/cpu/armv7/start.o
 .rel.text.ehci_set_usbmode
                0x0000000000000000        0x0 arch/arm/cpu/armv7/start.o
 .rel.text.ehci_submit_root
                0x0000000017869d18       0x28 arch/arm/cpu/armv7/start.o
 .rel.text.usb_lowlevel_stop
                0x0000000017869d40        0x8 arch/arm/cpu/armv7/start.o
 .rel.text.usb_lowlevel_init
                0x0000000017869d48       0x20 arch/arm/cpu/armv7/start.o
 .rel.text.create_int_queue
                0x0000000017869d68       0x10 arch/arm/cpu/armv7/start.o
 .rel.text.destroy_int_queue
                0x0000000017869d78        0x8 arch/arm/cpu/armv7/start.o
 .rel.text.submit_int_msg
                0x0000000017869d80        0x8 arch/arm/cpu/armv7/start.o
 .rel.text.usb_phy_mode
                0x0000000017869d88        0x8 arch/arm/cpu/armv7/start.o
 .rel.text.ehci_hcd_init
                0x0000000017869d90        0x8 arch/arm/cpu/armv7/start.o
 .rel.text.fs_probe_unsupported
                0x0000000017869d98        0x8 arch/arm/cpu/armv7/start.o
 .rel.text.fs_get_info
                0x0000000017869da0        0x8 arch/arm/cpu/armv7/start.o
 .rel.text.fs_close
                0x0000000017869da8        0x8 arch/arm/cpu/armv7/start.o
 .rel.text.fs_set_blk_dev
                0x0000000017869db0       0x28 arch/arm/cpu/armv7/start.o
 .rel.text.fs_uuid
                0x0000000000000000        0x0 arch/arm/cpu/armv7/start.o
 .rel.text.fs_ls
                0x0000000017869dd8        0x8 arch/arm/cpu/armv7/start.o
 .rel.text.fs_exists
                0x0000000017869de0        0x8 arch/arm/cpu/armv7/start.o
 .rel.text.fs_size
                0x0000000017869de8        0x8 arch/arm/cpu/armv7/start.o
 .rel.text.fs_read
                0x0000000017869df0       0x10 arch/arm/cpu/armv7/start.o
 .rel.text.fs_write
                0x0000000017869e00       0x10 arch/arm/cpu/armv7/start.o
 .rel.text.do_size
                0x0000000017869e10        0x8 arch/arm/cpu/armv7/start.o
 .rel.text.do_load
                0x0000000017869e18       0x48 arch/arm/cpu/armv7/start.o
 .rel.text.do_ls
                0x0000000017869e60        0x8 arch/arm/cpu/armv7/start.o
 .rel.text.do_save
                0x0000000017869e68       0x28 arch/arm/cpu/armv7/start.o
 .rel.text.do_fs_uuid
                0x0000000000000000        0x0 arch/arm/cpu/armv7/start.o
 .rel.text.do_fs_type
                0x0000000000000000        0x0 arch/arm/cpu/armv7/start.o
 .rel.text.get_fs
                0x0000000017869e90        0x8 arch/arm/cpu/armv7/start.o
 .rel.text.ext4fs_free_node
                0x0000000017869e98        0x8 arch/arm/cpu/armv7/start.o
 .rel.text.ext4fs_read_file
                0x0000000017869ea0        0x8 arch/arm/cpu/armv7/start.o
 .rel.text.ext4fs_ls
                0x0000000017869ea8       0x10 arch/arm/cpu/armv7/start.o
 .rel.text.ext4fs_read
                0x0000000017869eb8       0x10 arch/arm/cpu/armv7/start.o
 .rel.text.ext4_read_file
                0x0000000017869ec8       0x10 arch/arm/cpu/armv7/start.o
 .rel.text.ext4fs_uuid
                0x0000000017869ed8        0x8 arch/arm/cpu/armv7/start.o
 .rel.text.put_ext4
                0x0000000017869ee0       0x20 arch/arm/cpu/armv7/start.o
 .rel.text.ext4fs_set_block_bmap
                0x0000000017869f00        0x8 arch/arm/cpu/armv7/start.o
 .rel.text.ext4fs_reset_block_bmap
                0x0000000017869f08        0x8 arch/arm/cpu/armv7/start.o
 .rel.text.ext4fs_set_inode_bmap
                0x0000000017869f10        0x8 arch/arm/cpu/armv7/start.o
 .rel.text.ext4fs_reset_inode_bmap
                0x0000000017869f18        0x8 arch/arm/cpu/armv7/start.o
 .rel.text.ext4fs_get_new_blk_no
                0x0000000017869f20       0x10 arch/arm/cpu/armv7/start.o
 .rel.text.ext4fs_get_new_inode_no
                0x0000000017869f30       0x10 arch/arm/cpu/armv7/start.o
 .rel.text.ext4fs_allocate_blocks
                0x0000000017869f40       0x30 arch/arm/cpu/armv7/start.o
 .rel.text.ext4fs_iget
                0x0000000017869f70        0x8 arch/arm/cpu/armv7/start.o
 .rel.text.read_allocated_block
                0x0000000017869f78       0xb8 arch/arm/cpu/armv7/start.o
 .rel.text.ext4fs_update_parent_dentry
                0x000000001786a030       0x30 arch/arm/cpu/armv7/start.o
 .rel.text.ext4fs_get_parent_inode_num
                0x000000001786a060       0x28 arch/arm/cpu/armv7/start.o
 .rel.text.ext4fs_filename_check
                0x000000001786a088       0x10 arch/arm/cpu/armv7/start.o
 .rel.text.ext4fs_reinit_global
                0x000000001786a098       0x48 arch/arm/cpu/armv7/start.o
 .rel.text.ext4fs_close
                0x000000001786a0e0       0x10 arch/arm/cpu/armv7/start.o
 .rel.text.ext4fs_iterate_dir
                0x000000001786a0f0       0x28 arch/arm/cpu/armv7/start.o
 .rel.text.ext4fs_find_file1
                0x000000001786a118       0x10 arch/arm/cpu/armv7/start.o
 .rel.text.ext4fs_find_file
                0x000000001786a128        0x8 arch/arm/cpu/armv7/start.o
 .rel.text.ext4fs_open
                0x000000001786a130       0x10 arch/arm/cpu/armv7/start.o
 .rel.text.ext4fs_mount
                0x000000001786a140       0x10 arch/arm/cpu/armv7/start.o
 .rel.text.ext4fs_set_blk_dev
                0x000000001786a150       0x18 arch/arm/cpu/armv7/start.o
 .rel.text.ext4fs_devread
                0x000000001786a168       0x38 arch/arm/cpu/armv7/start.o
 .rel.text.ext4fs_update
                0x000000001786a1a0       0x10 arch/arm/cpu/armv7/start.o
 .rel.text.ext4fs_get_bgdtable
                0x000000001786a1b0        0x8 arch/arm/cpu/armv7/start.o
 .rel.text.ext4fs_deinit
                0x000000001786a1b8        0x8 arch/arm/cpu/armv7/start.o
 .rel.text.ext4fs_init
                0x000000001786a1c0       0x10 arch/arm/cpu/armv7/start.o
 .rel.text.ext4fs_write
                0x000000001786a1d0       0x68 arch/arm/cpu/armv7/start.o
 .rel.text.ext4_write_file
                0x000000001786a238       0x18 arch/arm/cpu/armv7/start.o
 .rel.text.ext4fs_dump_metadata
                0x000000001786a250        0x8 arch/arm/cpu/armv7/start.o
 .rel.text.ext4fs_free_journal
                0x000000001786a258       0x28 arch/arm/cpu/armv7/start.o
 .rel.text.ext4fs_log_gdt
                0x000000001786a280       0x10 arch/arm/cpu/armv7/start.o
 .rel.text.ext4fs_log_journal
                0x000000001786a290       0x20 arch/arm/cpu/armv7/start.o
 .rel.text.ext4fs_put_metadata
                0x000000001786a2b0       0x20 arch/arm/cpu/armv7/start.o
 .rel.text.print_revoke_blks
                0x0000000000000000        0x0 arch/arm/cpu/armv7/start.o
 .rel.text.ext4fs_push_revoke_blk
                0x000000001786a2d0       0x28 arch/arm/cpu/armv7/start.o
 .rel.text.ext4fs_free_revoke_blks
                0x000000001786a2f8       0x18 arch/arm/cpu/armv7/start.o
 .rel.text.check_blknr_for_revoke
                0x000000001786a310        0x8 arch/arm/cpu/armv7/start.o
 .rel.text.recover_transaction
                0x000000001786a318       0x10 arch/arm/cpu/armv7/start.o
 .rel.text.print_jrnl_status
                0x000000001786a328       0x10 arch/arm/cpu/armv7/start.o
 .rel.text.ext4fs_check_journal_state
                0x000000001786a338       0x18 arch/arm/cpu/armv7/start.o
 .rel.text.ext4fs_init_journal
                0x000000001786a350       0x38 arch/arm/cpu/armv7/start.o
 .rel.text.ext4fs_update_journal
                0x000000001786a388       0x20 arch/arm/cpu/armv7/start.o
 .rel.text.ext2fs_crc16
                0x000000001786a3a8        0x8 arch/arm/cpu/armv7/start.o
 .rel.text.downcase
                0x000000001786a3b0        0x8 arch/arm/cpu/armv7/start.o
 .rel.text.disk_read
                0x000000001786a3b8       0x10 arch/arm/cpu/armv7/start.o
 .rel.text.get_cluster
                0x000000001786a3c8        0x8 arch/arm/cpu/armv7/start.o
 .rel.text.read_bootsectandvi
                0x000000001786a3d0       0x20 arch/arm/cpu/armv7/start.o
 .rel.text.get_vfatname
                0x000000001786a3f0       0x10 arch/arm/cpu/armv7/start.o
 .rel.text.fat_set_blk_dev
                0x000000001786a400       0x28 arch/arm/cpu/armv7/start.o
 .rel.text.fat_register_device
                0x0000000000000000        0x0 arch/arm/cpu/armv7/start.o
 .rel.text.do_fat_read_at
                0x000000001786a428       0x58 arch/arm/cpu/armv7/start.o
 .rel.text.file_fat_detectfs
                0x000000001786a480       0xb0 arch/arm/cpu/armv7/start.o
 .rel.text.file_fat_read_at
                0x000000001786a530        0x8 arch/arm/cpu/armv7/start.o
 .rel.text.fat_read_file
                0x000000001786a538        0x8 arch/arm/cpu/armv7/start.o
 .rel.text.file_getfsname
                0x0000000000000000        0x0 arch/arm/cpu/armv7/start.o
 .rel.text.file_cd
                0x0000000000000000        0x0 arch/arm/cpu/armv7/start.o
 .rel.text.file_detectfs
                0x0000000000000000        0x0 arch/arm/cpu/armv7/start.o
 .rel.text.file_ls
                0x0000000000000000        0x0 arch/arm/cpu/armv7/start.o
 .rel.text.file_read
                0x0000000000000000        0x0 arch/arm/cpu/armv7/start.o
 .rel.rodata.filesystems
                0x0000000000000000        0x0 arch/arm/cpu/armv7/start.o
 .rel.data.fstypes
                0x000000001786a540       0xd8 arch/arm/cpu/armv7/start.o
 .rel.text.inflate_fast
                0x000000001786a618       0x18 arch/arm/cpu/armv7/start.o
 .rel.text.inflate_table
                0x000000001786a630       0x20 arch/arm/cpu/armv7/start.o
 .rel.text.inflateInit2_
                0x000000001786a650       0x10 arch/arm/cpu/armv7/start.o
 .rel.text.inflate
                0x000000001786a660      0x188 arch/arm/cpu/armv7/start.o
 .rel.text.fdt_next_tag
                0x000000001786a7e8       0x48 arch/arm/cpu/armv7/start.o
 .rel.text.fdt_get_phandle
                0x0000000000000000        0x0 arch/arm/cpu/armv7/start.o
 .rel.text.fdt_get_alias_namelen
                0x000000001786a830        0x8 arch/arm/cpu/armv7/start.o
 .rel.text.fdt_node_check_compatible
                0x0000000000000000        0x0 arch/arm/cpu/armv7/start.o
 .rel.text.fdt_strerror
                0x000000001786a838       0x20 arch/arm/cpu/armv7/start.o
 .rel.text.fdt_find_regions
                0x0000000000000000        0x0 arch/arm/cpu/armv7/start.o
 .rel.text.fdt_create_empty_tree
                0x0000000000000000        0x0 arch/arm/cpu/armv7/start.o
 .rel.text.fdt_address_cells
                0x000000001786a858        0x8 arch/arm/cpu/armv7/start.o
 .rel.text.fdt_size_cells
                0x000000001786a860        0x8 arch/arm/cpu/armv7/start.o
 .rel.text.crc7
                0x0000000000000000        0x0 arch/arm/cpu/armv7/start.o
 .rel.text.cyg_crc16
                0x000000001786a868        0x8 arch/arm/cpu/armv7/start.o
 .rel.text.gzwrite_progress
                0x0000000000000000        0x0 arch/arm/cpu/armv7/start.o
 .rel.text.gzwrite_progress_finish
                0x0000000000000000        0x0 arch/arm/cpu/armv7/start.o
 .rel.text.gzwrite
                0x0000000000000000        0x0 arch/arm/cpu/armv7/start.o
 .rel.text.zunzip
                0x000000001786a870       0x28 arch/arm/cpu/armv7/start.o
 .rel.text.gunzip
                0x000000001786a898       0x10 arch/arm/cpu/armv7/start.o
 .rel.text.initcall_run_list
                0x000000001786a8a8        0x8 arch/arm/cpu/armv7/start.o
 .rel.text.lmb_alloc_base
                0x000000001786a8b0        0x8 arch/arm/cpu/armv7/start.o
 .rel.text.strmhz
                0x0000000000000000        0x0 arch/arm/cpu/armv7/start.o
 .rel.text.list_sort
                0x0000000000000000        0x0 arch/arm/cpu/armv7/start.o
 .rel.text.match_string.isra.3
                0x000000001786a8b8        0x8 arch/arm/cpu/armv7/start.o
 .rel.text.hcreate_r
                0x000000001786a8c0        0x8 arch/arm/cpu/armv7/start.o
 .rel.text.hdestroy_r
                0x000000001786a8c8        0x8 arch/arm/cpu/armv7/start.o
 .rel.text.hmatch_r
                0x000000001786a8d0        0x8 arch/arm/cpu/armv7/start.o
 .rel.text.hsearch_r
                0x000000001786a8d8        0x8 arch/arm/cpu/armv7/start.o
 .rel.text.hdelete_r
                0x000000001786a8e0        0x8 arch/arm/cpu/armv7/start.o
 .rel.text.hexport_r
                0x000000001786a8e8       0x18 arch/arm/cpu/armv7/start.o
 .rel.text.himport_r
                0x000000001786a900       0x20 arch/arm/cpu/armv7/start.o
 .rel.text.display_options
                0x000000001786a920       0x10 arch/arm/cpu/armv7/start.o
 .rel.text.print_size
                0x000000001786a930       0x28 arch/arm/cpu/armv7/start.o
 .rel.text.print_buffer
                0x000000001786a958       0x28 arch/arm/cpu/armv7/start.o
 .rel.text.crc32_no_comp
                0x000000001786a980        0x8 arch/arm/cpu/armv7/start.o
 .rel.text.hang
                0x000000001786a988        0x8 arch/arm/cpu/armv7/start.o
 .rel.text.skip_spaces
                0x000000001786a990        0x8 arch/arm/cpu/armv7/start.o
 .rel.text.strim
                0x000000001786a998        0x8 arch/arm/cpu/armv7/start.o
 .rel.text.strncasecmp
                0x0000000000000000        0x0 arch/arm/cpu/armv7/start.o
 .rel.text.strtok
                0x000000001786a9a0        0x8 arch/arm/cpu/armv7/start.o
 .rel.text.string.isra.0
                0x000000001786a9a8        0x8 arch/arm/cpu/armv7/start.o
 .rel.text.number.isra.4
                0x000000001786a9b0        0x8 arch/arm/cpu/armv7/start.o
 .rel.text.vsnprintf_internal.isra.6
                0x000000001786a9b8       0x10 arch/arm/cpu/armv7/start.o
 .rel.text.simple_strtoul
                0x000000001786a9c8        0x8 arch/arm/cpu/armv7/start.o
 .rel.text.simple_strtoull
                0x000000001786a9d0        0x8 arch/arm/cpu/armv7/start.o
 .rel.text.__assert_fail
                0x0000000000000000        0x0 arch/arm/cpu/armv7/start.o
 .rel.text.simple_itoa
                0x000000001786a9d8        0x8 arch/arm/cpu/armv7/start.o
 .rel.text.print_grouped_ull
                0x0000000000000000        0x0 arch/arm/cpu/armv7/start.o
 .rel.rodata.z_errmsg
                0x0000000000000000        0x0 arch/arm/cpu/armv7/start.o
 .rel.rodata.fdt_errtable
                0x000000001786a9e0       0x58 arch/arm/cpu/armv7/start.o
 .rel.data.current
                0x0000000000000000        0x0 arch/arm/cpu/armv7/start.o
 .rel.text.ArpInit
                0x000000001786aa38       0x30 arch/arm/cpu/armv7/start.o
 .rel.text.arp_raw_request
                0x000000001786aa68       0x18 arch/arm/cpu/armv7/start.o
 .rel.text.ArpRequest
                0x000000001786aa80       0x38 arch/arm/cpu/armv7/start.o
 .rel.text.ArpTimeoutCheck
                0x000000001786aab8       0x20 arch/arm/cpu/armv7/start.o
 .rel.text.ArpReceive
                0x000000001786aad8       0x40 arch/arm/cpu/armv7/start.o
 .rel.text.DhcpOptionsProcess
                0x000000001786ab18       0x68 arch/arm/cpu/armv7/start.o
 .rel.text.DhcpHandler
                0x000000001786ab80       0x88 arch/arm/cpu/armv7/start.o
 .rel.text.BootpReset
                0x000000001786ac08       0x20 arch/arm/cpu/armv7/start.o
 .rel.text.BootpRequest
                0x000000001786ac28       0x60 arch/arm/cpu/armv7/start.o
 .rel.text.BootpTimeout
                0x000000001786ac88       0x20 arch/arm/cpu/armv7/start.o
 .rel.text.eth_current_changed
                0x000000001786aca8       0x10 arch/arm/cpu/armv7/start.o
 .rel.text.eth_setenv_enetaddr
                0x000000001786acb8        0x8 arch/arm/cpu/armv7/start.o
 .rel.text.eth_getenv_enetaddr_by_index
                0x000000001786acc0       0x10 arch/arm/cpu/armv7/start.o
 .rel.text.eth_get_dev_by_name
                0x0000000000000000        0x0 arch/arm/cpu/armv7/start.o
 .rel.text.eth_get_dev_by_index
                0x000000001786acd0        0x8 arch/arm/cpu/armv7/start.o
 .rel.text.eth_get_dev_index
                0x000000001786acd8        0x8 arch/arm/cpu/armv7/start.o
 .rel.text.eth_write_hwaddr
                0x000000001786ace0       0x60 arch/arm/cpu/armv7/start.o
 .rel.text.eth_register
                0x000000001786ad40       0x18 arch/arm/cpu/armv7/start.o
 .rel.text.eth_unregister
                0x000000001786ad58       0x10 arch/arm/cpu/armv7/start.o
 .rel.text.eth_initialize
                0x000000001786ad68       0x88 arch/arm/cpu/armv7/start.o
 .rel.text.eth_halt
                0x000000001786adf0        0x8 arch/arm/cpu/armv7/start.o
 .rel.text.eth_send
                0x000000001786adf8        0x8 arch/arm/cpu/armv7/start.o
 .rel.text.eth_rx
                0x000000001786ae00        0x8 arch/arm/cpu/armv7/start.o
 .rel.text.eth_try_another
                0x000000001786ae08       0x28 arch/arm/cpu/armv7/start.o
 .rel.text.eth_init
                0x000000001786ae30       0x20 arch/arm/cpu/armv7/start.o
 .rel.text.eth_set_current
                0x000000001786ae50       0x20 arch/arm/cpu/armv7/start.o
 .rel.text.eth_get_name
                0x000000001786ae70       0x10 arch/arm/cpu/armv7/start.o
 .rel.text.startAgainTimeout
                0x000000001786ae80        0x8 arch/arm/cpu/armv7/start.o
 .rel.text.net_clear_handlers
                0x000000001786ae88       0x20 arch/arm/cpu/armv7/start.o
 .rel.text.net_auto_load
                0x000000001786aea8       0x18 arch/arm/cpu/armv7/start.o
 .rel.text.NetStartAgain
                0x000000001786aec0       0x78 arch/arm/cpu/armv7/start.o
 .rel.text.net_get_udp_handler
                0x0000000000000000        0x0 arch/arm/cpu/armv7/start.o
 .rel.text.net_set_udp_handler
                0x000000001786af38       0x10 arch/arm/cpu/armv7/start.o
 .rel.text.net_get_arp_handler
                0x000000001786af48        0x8 arch/arm/cpu/armv7/start.o
 .rel.text.net_set_arp_handler
                0x0000000000000000        0x0 arch/arm/cpu/armv7/start.o
 .rel.text.NetSetTimeout
                0x000000001786af50       0x18 arch/arm/cpu/armv7/start.o
 .rel.text.NetReceive
                0x000000001786af68       0x38 arch/arm/cpu/armv7/start.o
 .rel.text.NetEthHdrSize
                0x000000001786afa0        0x8 arch/arm/cpu/armv7/start.o
 .rel.text.NetSetEther
                0x000000001786afa8       0x10 arch/arm/cpu/armv7/start.o
 .rel.text.net_update_ether
                0x000000001786afb8        0x8 arch/arm/cpu/armv7/start.o
 .rel.text.net_set_ip_header
                0x000000001786afc0        0x8 arch/arm/cpu/armv7/start.o
 .rel.text.net_set_udp_header
                0x000000001786afc8        0x8 arch/arm/cpu/armv7/start.o
 .rel.text.NetSendUDPPacket
                0x000000001786afd0       0x40 arch/arm/cpu/armv7/start.o
 .rel.text.on_bootfile
                0x000000001786b010        0x8 arch/arm/cpu/armv7/start.o
 .rel.text.ip_to_string
                0x000000001786b018        0x8 arch/arm/cpu/armv7/start.o
 .rel.text.VLAN_to_string
                0x0000000000000000        0x0 arch/arm/cpu/armv7/start.o
 .rel.text.NetInitLoop
                0x000000001786b020       0x78 arch/arm/cpu/armv7/start.o
 .rel.text.net_init
                0x000000001786b098       0x20 arch/arm/cpu/armv7/start.o
 .rel.text.NetLoop
                0x000000001786b0b8      0x180 arch/arm/cpu/armv7/start.o
 .rel.text.rpc_lookup_reply
                0x000000001786b238       0x18 arch/arm/cpu/armv7/start.o
 .rel.text.nfs_mount_reply
                0x000000001786b250       0x18 arch/arm/cpu/armv7/start.o
 .rel.text.nfs_umountall_reply
                0x000000001786b268       0x18 arch/arm/cpu/armv7/start.o
 .rel.text.nfs_lookup_reply
                0x000000001786b280       0x10 arch/arm/cpu/armv7/start.o
 .rel.text.nfs_readlink_reply
                0x000000001786b290       0x18 arch/arm/cpu/armv7/start.o
 .rel.text.rpc_add_credentials
                0x000000001786b2a8        0x8 arch/arm/cpu/armv7/start.o
 .rel.text.rpc_req
                0x000000001786b2b0       0x38 arch/arm/cpu/armv7/start.o
 .rel.text.nfs_umountall_req
                0x000000001786b2e8       0x10 arch/arm/cpu/armv7/start.o
 .rel.text.nfs_lookup_req
                0x000000001786b2f8        0x8 arch/arm/cpu/armv7/start.o
 .rel.text.nfs_read_req
                0x000000001786b300        0x8 arch/arm/cpu/armv7/start.o
 .rel.text.nfs_readlink_req
                0x000000001786b308        0x8 arch/arm/cpu/armv7/start.o
 .rel.text.nfs_read_reply.isra.0
                0x000000001786b310       0x28 arch/arm/cpu/armv7/start.o
 .rel.text.NfsSend
                0x000000001786b338       0x60 arch/arm/cpu/armv7/start.o
 .rel.text.NfsHandler
                0x000000001786b398       0xa8 arch/arm/cpu/armv7/start.o
 .rel.text.NfsTimeout
                0x000000001786b440       0x20 arch/arm/cpu/armv7/start.o
 .rel.text.NfsStart
                0x000000001786b460       0xe0 arch/arm/cpu/armv7/start.o
 .rel.text.ping_timeout
                0x000000001786b540        0x8 arch/arm/cpu/armv7/start.o
 .rel.text.ping_start
                0x000000001786b548       0x58 arch/arm/cpu/armv7/start.o
 .rel.text.ping_receive
                0x000000001786b5a0       0x18 arch/arm/cpu/armv7/start.o
 .rel.text.TftpSend
                0x000000001786b5b8       0xb8 arch/arm/cpu/armv7/start.o
 .rel.text.TftpHandler
                0x000000001786b670       0xc0 arch/arm/cpu/armv7/start.o
 .rel.text.TftpTimeout
                0x000000001786b730       0x40 arch/arm/cpu/armv7/start.o
 .rel.text.TftpStart
                0x000000001786b770      0x130 arch/arm/cpu/armv7/start.o
 .rel.u_boot_list_2_env_clbk_2_bootfile
                0x000000001786b8a0       0x10 arch/arm/cpu/armv7/start.o
 .rel.text.do_dm
                0x000000001786b8b0        0x8 arch/arm/cpu/armv7/start.o
 .rel.text.do_dm_dump_uclass
                0x000000001786b8b8       0x20 arch/arm/cpu/armv7/start.o
 .rel.text.show_devices
                0x000000001786b8d8       0x30 arch/arm/cpu/armv7/start.o
 .rel.text.do_dm_dump_all
                0x000000001786b908       0x10 arch/arm/cpu/armv7/start.o
 .rel.u_boot_list_2_cmd_2_dm
                0x000000001786b918       0x20 arch/arm/cpu/armv7/start.o
 .rel.data.test_commands
                0x000000001786b938       0x40 arch/arm/cpu/armv7/start.o
 .rel.text.raise
                0x000000001786b978        0x8 arch/arm/cpu/armv7/start.o

.rel_dyn_end    0x000000001786b980        0x0
 *(.__rel_dyn_end)
 .__rel_dyn_end
                0x000000001786b980        0x0 arch/arm/lib/built-in.o

.end            0x000000001786b980        0x0
 *(.__end)
 .__end         0x000000001786b980        0x0 arch/arm/lib/built-in.o
                0x000000001786b980                _image_binary_end = .
                0x000000001786c000                . = ALIGN (0x1000)

.mmutable
 *(.mmutable)

.bss_start      0x0000000017862688        0x0
 *(.__bss_start)
 .__bss_start   0x0000000017862688        0x0 arch/arm/lib/built-in.o
                0x0000000017862688                __bss_start
                0x0000000017862688                __bss_base = .

.bss            0x0000000017862688    0x49028
 *(.bss*)
 .bss.modes     0x0000000017862688        0x8 arch/arm/imx-common/built-in.o
 .bss.params    0x0000000017862690        0x4 arch/arm/lib/built-in.o
 .bss.flag_repeat
                0x0000000017862694        0x4 common/built-in.o
 .bss.ifs       0x0000000017862698        0x4 common/built-in.o
 .bss.the_command.6885
                0x000000001786269c      0x101 common/built-in.o
 *fill*         0x000000001786279d        0x3 
 .bss.last_return_code
                0x00000000178627a0        0x4 common/built-in.o
 .bss.map       0x00000000178627a4      0x100 common/built-in.o
 .bss.do_repeat
                0x00000000178628a4        0x4 common/built-in.o
 .bss.buf.7085  0x00000000178628a8       0x28 common/built-in.o
 .bss.top_vars  0x00000000178628d0        0x4 common/built-in.o
 .bss.stored_bootdelay
                0x00000000178628d4        0x4 common/built-in.o
 .bss.monitor_flash_len
                0x00000000178628d8        0x4 common/built-in.o
                0x00000000178628d8                monitor_flash_len
 .bss.images    0x00000000178628dc      0x130 common/built-in.o
                0x00000000178628dc                images
 .bss.callback_list
                0x0000000017862a0c        0x4 common/built-in.o
 .bss.flags_list
                0x0000000017862a10        0x4 common/built-in.o
 .bss.working_fdt
                0x0000000017862a14        0x4 common/built-in.o
                0x0000000017862a14                working_fdt
 .bss.data.7726
                0x0000000017862a18      0x400 common/built-in.o
 .bss.i2c_mm_last_chip
                0x0000000017862e18        0x4 common/built-in.o
 .bss.i2c_mm_last_alen
                0x0000000017862e1c        0x4 common/built-in.o
 .bss.i2c_mm_last_addr
                0x0000000017862e20        0x4 common/built-in.o
 .bss.i2c_dp_last_chip
                0x0000000017862e24        0x4 common/built-in.o
 .bss.i2c_dp_last_addr
                0x0000000017862e28        0x4 common/built-in.o
 .bss.i2c_dp_last_alen
                0x0000000017862e2c        0x4 common/built-in.o
 .bss.send_parms
                0x0000000017862e30       0x14 common/built-in.o
 .bss.os_data_init
                0x0000000017862e44        0x4 common/built-in.o
 .bss.os_data_addr_saved
                0x0000000017862e48        0x4 common/built-in.o
 .bss.his_pad_char
                0x0000000017862e4c        0x1 common/built-in.o
 .bss.a_b       0x0000000017862e4d       0x18 common/built-in.o
 *fill*         0x0000000017862e65        0x3 
 .bss.os_data_char
                0x0000000017862e68        0x4 common/built-in.o
 .bss.os_data_state
                0x0000000017862e6c        0x4 common/built-in.o
 .bss.k_data_escape
                0x0000000017862e70        0x4 common/built-in.o
 .bss.os_data_state_saved
                0x0000000017862e74        0x4 common/built-in.o
 .bss.os_data_addr
                0x0000000017862e78        0x4 common/built-in.o
 .bss.send_ptr  0x0000000017862e7c        0x4 common/built-in.o
 .bss.bin_start_address
                0x0000000017862e80        0x4 common/built-in.o
 .bss.his_quote
                0x0000000017862e84        0x1 common/built-in.o
 *fill*         0x0000000017862e85        0x3 
 .bss.his_pad_count
                0x0000000017862e88        0x4 common/built-in.o
 .bss.his_eol   0x0000000017862e8c        0x1 common/built-in.o
 *fill*         0x0000000017862e8d        0x3 
 .bss.k_data_escape_saved
                0x0000000017862e90        0x4 common/built-in.o
 .bss.dp_last_addr
                0x0000000017862e94        0x4 common/built-in.o
 .bss.base_address
                0x0000000017862e98        0x4 common/built-in.o
 .bss.mm_last_size
                0x0000000017862e9c        0x4 common/built-in.o
 .bss.mm_last_addr
                0x0000000017862ea0        0x4 common/built-in.o
 .bss.dp_last_size
                0x0000000017862ea4        0x4 common/built-in.o
 .bss.current_mii
                0x0000000017862ea8        0x4 common/built-in.o
 .bss.mii_devs  0x0000000017862eac        0x8 common/built-in.o
 .bss.last_data
                0x0000000017862eb4        0x8 common/built-in.o
 .bss.last_reg_hi
                0x0000000017862ebc        0x8 common/built-in.o
 .bss.last_addr_lo
                0x0000000017862ec4        0x8 common/built-in.o
 .bss.last_op   0x0000000017862ecc        0x4 common/built-in.o
 .bss.last_addr_hi
                0x0000000017862ed0        0x8 common/built-in.o
 .bss.last_reg_lo
                0x0000000017862ed8        0x8 common/built-in.o
 .bss.last_devad_hi
                0x0000000017862ee0        0x4 common/built-in.o
 .bss.last_devad_lo
                0x0000000017862ee4        0x4 common/built-in.o
 .bss.flash     0x0000000017862ee8        0x4 common/built-in.o
 .bss.dev_index
                0x0000000017862eec        0x4 common/built-in.o
 *fill*         0x0000000017862ef0       0x10 
 .bss.usb_dev   0x0000000017862f00    0x12c00 common/built-in.o
 .bss.asynch_allowed
                0x0000000017875b00        0x4 common/built-in.o
 .bss.usb_started
                0x0000000017875b04        0x1 common/built-in.o
                0x0000000017875b04                usb_started
 *fill*         0x0000000017875b05        0x3 
 .bss.usb_hub_index
                0x0000000017875b08        0x4 common/built-in.o
 .bss.hub_dev   0x0000000017875b0c      0x100 common/built-in.o
 .bss.usb_stor  0x0000000017875c0c      0x104 common/built-in.o
 .bss.usb_dev_desc
                0x0000000017875d10      0x244 common/built-in.o
 .bss.usb_max_devs
                0x0000000017875f54        0x4 common/built-in.o
 .bss.CBWTag    0x0000000017875f58        0x4 common/built-in.o
 *fill*         0x0000000017875f5c        0x4 
 .bss.usb_ccb   0x0000000017875f60       0xa0 common/built-in.o
 .bss.ctrlc_was_pressed
                0x0000000017876000        0x4 common/built-in.o
 .bss.ctrlc_disabled
                0x0000000017876004        0x4 common/built-in.o
 .bss.max_total_mem
                0x0000000017876008        0x4 common/built-in.o
 .bss.mem_malloc_brk
                0x000000001787600c        0x4 common/built-in.o
                0x000000001787600c                mem_malloc_brk
 .bss.max_sbrked_mem
                0x0000000017876010        0x4 common/built-in.o
 .bss.current_mallinfo
                0x0000000017876014       0x28 common/built-in.o
 .bss.mem_malloc_end
                0x000000001787603c        0x4 common/built-in.o
                0x000000001787603c                mem_malloc_end
 .bss.top_pad   0x0000000017876040        0x4 common/built-in.o
 .bss.mem_malloc_start
                0x0000000017876044        0x4 common/built-in.o
                0x0000000017876044                mem_malloc_start
 .bss.devs      0x0000000017876048       0x4c common/built-in.o
 .bss.stdio_devices
                0x0000000017876094        0xc common/built-in.o
                0x0000000017876094                stdio_devices
 .bss.hist_list
                0x00000000178760a0       0x50 common/built-in.o
 .bss.hist_lines
                0x00000000178760f0     0x1414 common/built-in.o
 .bss.hist_max  0x0000000017877504        0x4 common/built-in.o
 .bss.hist_add_idx
                0x0000000017877508        0x4 common/built-in.o
 .bss.initted.6764
                0x000000001787750c        0x4 common/built-in.o
 .bss.hist_num  0x0000000017877510        0x4 common/built-in.o
 .bss.console_buffer
                0x0000000017877514      0x101 common/built-in.o
                0x0000000017877514                console_buffer
 .bss.tmp_buf.6649
                0x0000000017877615      0x200 common/built-in.o
 .bss.tmp_buf   0x0000000017877815      0x100 common/built-in.o
 *fill*         0x0000000017877915        0x3 
 .bss.xyz       0x0000000017877918      0x434 common/built-in.o
 .bss.video_console_address
                0x0000000017877d4c        0x4 drivers/built-in.o
 .bss.bgx       0x0000000017877d50        0x4 drivers/built-in.o
 .bss.video_logo_xpos
                0x0000000017877d54        0x4 drivers/built-in.o
 .bss.video_logo_ypos
                0x0000000017877d58        0x4 drivers/built-in.o
 .bss.eorx      0x0000000017877d5c        0x4 drivers/built-in.o
 .bss.fgx       0x0000000017877d60        0x4 drivers/built-in.o
 .bss.pGD       0x0000000017877d64        0x4 drivers/built-in.o
 .bss.cfb_do_flush_cache
                0x0000000017877d68        0x4 drivers/built-in.o
 .bss.console_row
                0x0000000017877d6c        0x4 drivers/built-in.o
 .bss.video_fb_address
                0x0000000017877d70        0x4 drivers/built-in.o
 .bss.console_col
                0x0000000017877d74        0x4 drivers/built-in.o
 .bss.g_dp_in_use
                0x0000000017877d78        0x1 drivers/built-in.o
 *fill*         0x0000000017877d79        0x3 
 .bss.panel     0x0000000017877d7c       0x90 drivers/built-in.o
 .bss.gpixfmt   0x0000000017877e0c        0x4 drivers/built-in.o
 .bss.gdisp     0x0000000017877e10        0x1 drivers/built-in.o
 *fill*         0x0000000017877e11        0x3 
 .bss.mxcfb_info
                0x0000000017877e14        0xc drivers/built-in.o
 .bss.gmode     0x0000000017877e20        0x4 drivers/built-in.o
 .bss.ipu_dp_use_count
                0x0000000017877e24        0x4 drivers/built-in.o
 .bss.g_dc_di_assignment
                0x0000000017877e28        0xa drivers/built-in.o
                0x0000000017877e28                g_dc_di_assignment
 *fill*         0x0000000017877e32        0x2 
 .bss.ipu_cpmem_base
                0x0000000017877e34        0x4 drivers/built-in.o
                0x0000000017877e34                ipu_cpmem_base
 .bss.g_ldb_clk
                0x0000000017877e38        0x4 drivers/built-in.o
                0x0000000017877e38                g_ldb_clk
 .bss.g_ipu_clk
                0x0000000017877e3c        0x4 drivers/built-in.o
                0x0000000017877e3c                g_ipu_clk
 .bss.ipu_dc_use_count
                0x0000000017877e40        0x4 drivers/built-in.o
 .bss.ipu_dmfc_use_count
                0x0000000017877e44        0x4 drivers/built-in.o
 .bss.ipu_di_use_count
                0x0000000017877e48        0x8 drivers/built-in.o
 .bss.g_ipu_clk_enabled
                0x0000000017877e50        0x1 drivers/built-in.o
                0x0000000017877e50                g_ipu_clk_enabled
 *fill*         0x0000000017877e51        0x3 
 .bss.ipu_dc_tmpl_reg
                0x0000000017877e54        0x4 drivers/built-in.o
                0x0000000017877e54                ipu_dc_tmpl_reg
 .bss.g_channel_init_mask
                0x0000000017877e58        0x4 drivers/built-in.o
                0x0000000017877e58                g_channel_init_mask
 .bss.g_channel_enable_mask
                0x0000000017877e5c        0x4 drivers/built-in.o
                0x0000000017877e5c                g_channel_enable_mask
 .bss.g_pixel_clk
                0x0000000017877e60        0x8 drivers/built-in.o
                0x0000000017877e60                g_pixel_clk
 .bss.g_di_clk  0x0000000017877e68        0x8 drivers/built-in.o
                0x0000000017877e68                g_di_clk
 .bss.dmfc_type_setup
                0x0000000017877e70        0x4 drivers/built-in.o
                0x0000000017877e70                dmfc_type_setup
 .bss.dc_swap   0x0000000017877e74        0x1 drivers/built-in.o
 *fill*         0x0000000017877e75        0x3 
 .bss.dmfc_size_23
                0x0000000017877e78        0x4 drivers/built-in.o
 .bss.dmfc_size_24
                0x0000000017877e7c        0x4 drivers/built-in.o
 .bss.dmfc_size_27
                0x0000000017877e80        0x4 drivers/built-in.o
 .bss.dmfc_size_28
                0x0000000017877e84        0x4 drivers/built-in.o
 .bss.dmfc_size_29
                0x0000000017877e88        0x4 drivers/built-in.o
 .bss.g_di1_tvout
                0x0000000017877e8c        0x4 drivers/built-in.o
                0x0000000017877e8c                g_di1_tvout
 .bss.mmc_devices
                0x0000000017877e90        0x8 drivers/mmc/built-in.o
 .bss.hose_head
                0x0000000017877e98        0x4 drivers/pci/built-in.o
 .bss.indent.7438
                0x0000000017877e9c        0x4 drivers/pci/built-in.o
 .bss.data_abort_backup.7400
                0x0000000017877ea0        0x4 drivers/pci/built-in.o
 .bss.pcc.7464  0x0000000017877ea4       0xe0 drivers/pci/built-in.o
 .bss.serial_devices
                0x0000000017877f84        0x4 drivers/serial/built-in.o
 .bss.serial_current
                0x0000000017877f88        0x4 drivers/serial/built-in.o
 .bss.usb_eth   0x0000000017877f8c      0x1a4 drivers/usb/eth/built-in.o
 .bss.usb_max_eth_dev
                0x0000000017878130        0x4 drivers/usb/eth/built-in.o
 .bss.curr_eth_dev
                0x0000000017878134        0x4 drivers/usb/eth/built-in.o
 .bss.epnum     0x0000000017878138        0x4 drivers/usb/gadget/built-in.o
 .bss.g_dnl_serial
                0x000000001787813c       0x20 drivers/usb/gadget/built-in.o
 .bss.composite
                0x000000001787815c        0x4 drivers/usb/gadget/built-in.o
 .bss.unknown.7970
                0x0000000017878160       0x10 drivers/usb/gadget/built-in.o
 .bss.ums       0x0000000017878170        0x4 drivers/usb/gadget/built-in.o
                0x0000000017878170                ums
 .bss.state.7714
                0x0000000017878174        0x4 drivers/usb/gadget/built-in.o
 .bss.the_fsg_common
                0x0000000017878178        0x4 drivers/usb/gadget/built-in.o
                0x0000000017878178                the_fsg_common
 *fill*         0x000000001787817c        0x4 
 .bss.ehcic     0x0000000017878180      0x100 drivers/usb/host/built-in.o
 .bss.fs_partition
                0x0000000017878280       0x50 fs/built-in.o
 .bss.fs_type   0x00000000178782d0        0x4 fs/built-in.o
 .bss.fs_dev_desc
                0x00000000178782d4        0x4 fs/built-in.o
 .bss.ext_fs    0x00000000178782d8       0x48 fs/built-in.o
                0x00000000178782d8                ext_fs
 .bss.ext4fs_indir1_block
                0x0000000017878320        0x4 fs/built-in.o
                0x0000000017878320                ext4fs_indir1_block
 .bss.ext4fs_root
                0x0000000017878324        0x4 fs/built-in.o
                0x0000000017878324                ext4fs_root
 .bss.ext4fs_indir3_size
                0x0000000017878328        0x4 fs/built-in.o
                0x0000000017878328                ext4fs_indir3_size
 .bss.ext4fs_indir2_size
                0x000000001787832c        0x4 fs/built-in.o
                0x000000001787832c                ext4fs_indir2_size
 .bss.ext4fs_indir3_block
                0x0000000017878330        0x4 fs/built-in.o
                0x0000000017878330                ext4fs_indir3_block
 .bss.ext4fs_indir2_block
                0x0000000017878334        0x4 fs/built-in.o
                0x0000000017878334                ext4fs_indir2_block
 .bss.ext4fs_indir1_size
                0x0000000017878338        0x4 fs/built-in.o
                0x0000000017878338                ext4fs_indir1_size
 .bss.symlinknest
                0x000000001787833c        0x4 fs/built-in.o
 .bss.ext4fs_file
                0x0000000017878340        0x4 fs/built-in.o
                0x0000000017878340                ext4fs_file
 .bss.g_parent_inode
                0x0000000017878344        0x4 fs/built-in.o
                0x0000000017878344                g_parent_inode
 .bss.part_info
                0x0000000017878348        0x4 fs/built-in.o
 .bss.ext4fs_block_dev_desc
                0x000000001787834c        0x4 fs/built-in.o
 .bss.part_offset
                0x0000000017878350        0x4 fs/built-in.o
                0x0000000017878350                part_offset
 .bss.journal_ptr
                0x0000000017878354      0x190 fs/built-in.o
                0x0000000017878354                journal_ptr
 .bss.revk_blk_list
                0x00000000178784e4        0x4 fs/built-in.o
 .bss.gindex    0x00000000178784e8        0x4 fs/built-in.o
                0x00000000178784e8                gindex
 .bss.gd_index  0x00000000178784ec        0x4 fs/built-in.o
                0x00000000178784ec                gd_index
 .bss.dirty_block_ptr
                0x00000000178784f0      0x190 fs/built-in.o
                0x00000000178784f0                dirty_block_ptr
 .bss.prev_node
                0x0000000017878680        0x4 fs/built-in.o
 .bss.jrnl_blk_idx
                0x0000000017878684        0x4 fs/built-in.o
                0x0000000017878684                jrnl_blk_idx
 *fill*         0x0000000017878688       0x18 
 .bss.do_fat_read_at_block
                0x00000000178786a0    0x10000 fs/built-in.o
                0x00000000178786a0                do_fat_read_at_block
 .bss.get_dentfromdir_block
                0x00000000178886a0    0x10000 fs/built-in.o
                0x00000000178886a0                get_dentfromdir_block
 .bss.cur_part_info
                0x00000000178986a0       0x50 fs/built-in.o
 *fill*         0x00000000178986f0       0x10 
 .bss.get_contents_vfatname_block
                0x0000000017898700    0x10000 fs/built-in.o
                0x0000000017898700                get_contents_vfatname_block
 .bss.cur_dev   0x00000000178a8700        0x4 fs/built-in.o
 .bss.errno     0x00000000178a8704        0x4 lib/built-in.o
                0x00000000178a8704                errno
 .bss.___strtok
                0x00000000178a8708        0x4 lib/built-in.o
                0x00000000178a8708                ___strtok
 .bss.local.6874
                0x00000000178a870c       0x16 lib/built-in.o
 *fill*         0x00000000178a8722        0x2 
 .bss.NetArpWaitPacketIP
                0x00000000178a8724        0x4 net/built-in.o
                0x00000000178a8724                NetArpWaitPacketIP
 .bss.NetArpWaitTimerStart
                0x00000000178a8728        0x4 net/built-in.o
                0x00000000178a8728                NetArpWaitTimerStart
 .bss.NetArpWaitReplyIP
                0x00000000178a872c        0x4 net/built-in.o
 .bss.NetArpWaitTxPacketSize
                0x00000000178a8730        0x4 net/built-in.o
                0x00000000178a8730                NetArpWaitTxPacketSize
 .bss.NetArpWaitTry
                0x00000000178a8734        0x4 net/built-in.o
                0x00000000178a8734                NetArpWaitTry
 .bss.NetArpTxPacket
                0x00000000178a8738        0x4 net/built-in.o
 .bss.NetArpPacketBuf
                0x00000000178a873c      0x620 net/built-in.o
 .bss.NetArpWaitPacketMAC
                0x00000000178a8d5c        0x4 net/built-in.o
                0x00000000178a8d5c                NetArpWaitPacketMAC
 .bss.dhcp_state
                0x00000000178a8d60        0x4 net/built-in.o
 .bss.BootpTry  0x00000000178a8d64        0x4 net/built-in.o
                0x00000000178a8d64                BootpTry
 .bss.NetDHCPServerIP
                0x00000000178a8d68        0x4 net/built-in.o
 .bss.bootp_timeout
                0x00000000178a8d6c        0x4 net/built-in.o
                0x00000000178a8d6c                bootp_timeout
 .bss.bootp_ids
                0x00000000178a8d70       0x10 net/built-in.o
                0x00000000178a8d70                bootp_ids
 .bss.bootp_num_ids
                0x00000000178a8d80        0x4 net/built-in.o
                0x00000000178a8d80                bootp_num_ids
 .bss.bootp_start
                0x00000000178a8d84        0x4 net/built-in.o
                0x00000000178a8d84                bootp_start
 .bss.dhcp_leasetime
                0x00000000178a8d88        0x4 net/built-in.o
 .bss.env_changed_id.7157
                0x00000000178a8d8c        0x4 net/built-in.o
 .bss.act.7156  0x00000000178a8d90        0x4 net/built-in.o
 .bss.index.7104
                0x00000000178a8d94        0x4 net/built-in.o
 .bss.first_failed.7151
                0x00000000178a8d98        0x4 net/built-in.o
 .bss.eth_current
                0x00000000178a8d9c        0x4 net/built-in.o
                0x00000000178a8d9c                eth_current
 .bss.eth_devices
                0x00000000178a8da0        0x4 net/built-in.o
 .bss.NetOurEther
                0x00000000178a8da4        0x6 net/built-in.o
                0x00000000178a8da4                NetOurEther
 *fill*         0x00000000178a8daa        0x2 
 .bss.NetServerIP
                0x00000000178a8dac        0x4 net/built-in.o
                0x00000000178a8dac                NetServerIP
 .bss.NetRestarted
                0x00000000178a8db0        0x4 net/built-in.o
 .bss.net_state
                0x00000000178a8db4        0x4 net/built-in.o
                0x00000000178a8db4                net_state
 .bss.NetRxPackets
                0x00000000178a8db8       0x10 net/built-in.o
                0x00000000178a8db8                NetRxPackets
 .bss.NetBootFileSize
                0x00000000178a8dc8        0x2 net/built-in.o
                0x00000000178a8dc8                NetBootFileSize
 .bss.NetEtherNullAddr
                0x00000000178a8dca        0x6 net/built-in.o
                0x00000000178a8dca                NetEtherNullAddr
 .bss.NetRxPacket
                0x00000000178a8dd0        0x4 net/built-in.o
                0x00000000178a8dd0                NetRxPacket
 .bss.udp_packet_handler
                0x00000000178a8dd4        0x4 net/built-in.o
 .bss.NetDevExists
                0x00000000178a8dd8        0x4 net/built-in.o
 .bss.timeStart
                0x00000000178a8ddc        0x4 net/built-in.o
 .bss.timeHandler
                0x00000000178a8de0        0x4 net/built-in.o
 .bss.NetTryCount
                0x00000000178a8de4        0x4 net/built-in.o
 .bss.NetOurNISDomain
                0x00000000178a8de8       0x20 net/built-in.o
                0x00000000178a8de8                NetOurNISDomain
 .bss.NetOurDNSIP
                0x00000000178a8e08        0x4 net/built-in.o
                0x00000000178a8e08                NetOurDNSIP
 .bss.NetOurSubnetMask
                0x00000000178a8e0c        0x4 net/built-in.o
                0x00000000178a8e0c                NetOurSubnetMask
 .bss.NetTxPacket
                0x00000000178a8e10        0x4 net/built-in.o
                0x00000000178a8e10                NetTxPacket
 .bss.NetBootFileXferSize
                0x00000000178a8e14        0x4 net/built-in.o
                0x00000000178a8e14                NetBootFileXferSize
 .bss.NetOurIP  0x00000000178a8e18        0x4 net/built-in.o
                0x00000000178a8e18                NetOurIP
 .bss.env_changed_id.7073
                0x00000000178a8e1c        0x4 net/built-in.o
 .bss.NetIPID   0x00000000178a8e20        0x4 net/built-in.o
                0x00000000178a8e20                NetIPID
 .bss.NetOurGatewayIP
                0x00000000178a8e24        0x4 net/built-in.o
                0x00000000178a8e24                NetOurGatewayIP
 .bss.arp_packet_handler
                0x00000000178a8e28        0x4 net/built-in.o
 .bss.NetOurHostName
                0x00000000178a8e2c       0x20 net/built-in.o
                0x00000000178a8e2c                NetOurHostName
 .bss.NetRestartWrap
                0x00000000178a8e4c        0x4 net/built-in.o
                0x00000000178a8e4c                NetRestartWrap
 .bss.NetRxPacketLen
                0x00000000178a8e50        0x4 net/built-in.o
                0x00000000178a8e50                NetRxPacketLen
 .bss.BootFile  0x00000000178a8e54       0x80 net/built-in.o
                0x00000000178a8e54                BootFile
 .bss.timeDelta
                0x00000000178a8ed4        0x4 net/built-in.o
 .bss.NetServerEther
                0x00000000178a8ed8        0x6 net/built-in.o
                0x00000000178a8ed8                NetServerEther
 .bss.PktBuf    0x00000000178a8ede     0x1e20 net/built-in.o
 .bss.NetOurRootPath
                0x00000000178aacfe       0x40 net/built-in.o
                0x00000000178aacfe                NetOurRootPath
 *fill*         0x00000000178aad3e        0x2 
 .bss.NfsOurPort
                0x00000000178aad40        0x4 net/built-in.o
 .bss.NfsServerIP
                0x00000000178aad44        0x4 net/built-in.o
 .bss.nfs_filename
                0x00000000178aad48        0x4 net/built-in.o
 .bss.nfs_len   0x00000000178aad4c        0x4 net/built-in.o
 .bss.NfsSrvMountPort
                0x00000000178aad50        0x4 net/built-in.o
 .bss.dirfh     0x00000000178aad54       0x20 net/built-in.o
 .bss.NfsSrvNfsPort
                0x00000000178aad74        0x4 net/built-in.o
 .bss.rpc_id    0x00000000178aad78        0x4 net/built-in.o
 .bss.fs_mounted
                0x00000000178aad7c        0x4 net/built-in.o
 .bss.nfs_path_buff
                0x00000000178aad80      0x800 net/built-in.o
 .bss.nfs_download_state
                0x00000000178ab580        0x4 net/built-in.o
 .bss.nfs_path  0x00000000178ab584        0x4 net/built-in.o
 .bss.filefh    0x00000000178ab588       0x20 net/built-in.o
 .bss.NfsState  0x00000000178ab5a8        0x4 net/built-in.o
 .bss.default_filename
                0x00000000178ab5ac       0x4d net/built-in.o
 *fill*         0x00000000178ab5f9        0x3 
 .bss.NfsTimeoutCount
                0x00000000178ab5fc        0x4 net/built-in.o
 .bss.NetPingIP
                0x00000000178ab600        0x4 net/built-in.o
                0x00000000178ab600                NetPingIP
 .bss.PingSeqNo
                0x00000000178ab604        0x2 net/built-in.o
 *fill*         0x00000000178ab606        0x2 
 .bss.time_start
                0x00000000178ab608        0x4 net/built-in.o
 .bss.TftpTimeoutCount
                0x00000000178ab60c        0x4 net/built-in.o
 .bss.TftpBlockWrap
                0x00000000178ab610        0x4 net/built-in.o
 .bss.TftpBlock
                0x00000000178ab614        0x4 net/built-in.o
 .bss.TftpOurPort
                0x00000000178ab618        0x4 net/built-in.o
 .bss.TftpRemoteIP
                0x00000000178ab61c        0x4 net/built-in.o
 .bss.TftpState
                0x00000000178ab620        0x4 net/built-in.o
 .bss.TftpRemotePort
                0x00000000178ab624        0x4 net/built-in.o
 .bss.tftp_filename
                0x00000000178ab628       0x80 net/built-in.o
 .bss.TftpBlockWrapOffset
                0x00000000178ab6a8        0x4 net/built-in.o
 .bss.TftpLastBlock
                0x00000000178ab6ac        0x4 net/built-in.o
                0x00000000178ab6b0                . = ALIGN (0x4)
                0x00000000178ab6b0                __bss_limit = .

.bss_end        0x00000000178ab6b0        0x0
 *(.__bss_end)
 .__bss_end     0x00000000178ab6b0        0x0 arch/arm/lib/built-in.o
                0x00000000178ab6b0                __bss_end

.dynsym         0x000000001786b980       0x60
 *(.dynsym)
 .dynsym        0x000000001786b980       0x60 arch/arm/cpu/armv7/start.o

.dynbss         0x000000001786b9e0        0x0
 *(.dynbss)
 .dynbss        0x0000000000000000        0x0 arch/arm/cpu/armv7/start.o

.dynstr         0x000000001786b9e0       0x2a
 *(.dynstr*)
 .dynstr        0x000000001786b9e0       0x2a arch/arm/cpu/armv7/start.o

.dynamic        0x000000001786ba0c       0x80
 *(.dynamic*)
 .dynamic       0x000000001786ba0c       0x80 arch/arm/cpu/armv7/start.o
                0x000000001786ba0c                _DYNAMIC

.plt            0x000000001786ba8c        0x0
 *(.plt*)
 .plt           0x0000000000000000        0x0 arch/arm/cpu/armv7/start.o

.interp         0x000000001786ba8c       0x11
 *(.interp*)
 .interp        0x000000001786ba8c       0x11 arch/arm/cpu/armv7/start.o

.gnu.hash
 *(.gnu.hash)

.gnu            0x000000001786baa0        0x0
 *(.gnu*)
 .gnu.version_d
                0x0000000000000000        0x0 arch/arm/cpu/armv7/start.o
 .gnu.version   0x0000000000000000        0x0 arch/arm/cpu/armv7/start.o
 .gnu.version_r
                0x0000000000000000        0x0 arch/arm/cpu/armv7/start.o

.ARM.exidx
 *(.ARM.exidx*)

.gnu.linkonce.armexidx
 *(.gnu.linkonce.armexidx.*)
LOAD arch/arm/cpu/armv7/start.o
START GROUP
LOAD arch/arm/cpu/built-in.o
LOAD arch/arm/cpu/armv7/built-in.o
LOAD arch/arm/imx-common/built-in.o
LOAD arch/arm/lib/built-in.o
LOAD board/freescale/common/built-in.o
LOAD board/freescale/mx6sabresd/built-in.o
LOAD common/built-in.o
LOAD disk/built-in.o
LOAD drivers/built-in.o
LOAD drivers/dma/built-in.o
LOAD drivers/gpio/built-in.o
LOAD drivers/i2c/built-in.o
LOAD drivers/mmc/built-in.o
LOAD drivers/mtd/built-in.o
LOAD drivers/mtd/onenand/built-in.o
LOAD drivers/mtd/spi/built-in.o
LOAD drivers/net/built-in.o
LOAD drivers/net/phy/built-in.o
LOAD drivers/pci/built-in.o
LOAD drivers/power/built-in.o
LOAD drivers/power/battery/built-in.o
LOAD drivers/power/fuel_gauge/built-in.o
LOAD drivers/power/mfd/built-in.o
LOAD drivers/power/pmic/built-in.o
LOAD drivers/serial/built-in.o
LOAD drivers/spi/built-in.o
LOAD drivers/usb/eth/built-in.o
LOAD drivers/usb/gadget/built-in.o
LOAD drivers/usb/host/built-in.o
LOAD drivers/usb/musb-new/built-in.o
LOAD drivers/usb/musb/built-in.o
LOAD drivers/usb/phy/built-in.o
LOAD drivers/usb/ulpi/built-in.o
LOAD fs/built-in.o
LOAD lib/built-in.o
LOAD net/built-in.o
LOAD test/built-in.o
LOAD test/dm/built-in.o
END GROUP
LOAD arch/arm/lib/eabi_compat.o
LOAD /home/angel/bombardier-bsp/emsv5board/tmp/sysroots/ems_v5/usr/lib/arm-poky-linux-gnueabi/4.9.2/libgcc.a
OUTPUT(u-boot elf32-littlearm)

.ARM.attributes
                0x0000000000000000       0x2d
 .ARM.attributes
                0x0000000000000000       0x1d arch/arm/cpu/armv7/start.o
 .ARM.attributes
                0x000000000000001d       0x2b arch/arm/cpu/armv7/built-in.o
 .ARM.attributes
                0x0000000000000048       0x2d arch/arm/imx-common/built-in.o
 .ARM.attributes
                0x0000000000000075       0x29 arch/arm/lib/built-in.o
 .ARM.attributes
                0x000000000000009e       0x2d board/freescale/mx6sabresd/built-in.o
 .ARM.attributes
                0x00000000000000cb       0x2d common/built-in.o
 .ARM.attributes
                0x00000000000000f8       0x2d disk/built-in.o
 .ARM.attributes
                0x0000000000000125       0x2d drivers/built-in.o
 .ARM.attributes
                0x0000000000000152       0x2d drivers/gpio/built-in.o
 .ARM.attributes
                0x000000000000017f       0x2d drivers/i2c/built-in.o
 .ARM.attributes
                0x00000000000001ac       0x2d drivers/mmc/built-in.o
 .ARM.attributes
                0x00000000000001d9       0x2d drivers/mtd/spi/built-in.o
 .ARM.attributes
                0x0000000000000206       0x2d drivers/net/built-in.o
 .ARM.attributes
                0x0000000000000233       0x2d drivers/net/phy/built-in.o
 .ARM.attributes
                0x0000000000000260       0x2d drivers/pci/built-in.o
 .ARM.attributes
                0x000000000000028d       0x2d drivers/power/built-in.o
 .ARM.attributes
                0x00000000000002ba       0x2d drivers/serial/built-in.o
 .ARM.attributes
                0x00000000000002e7       0x2d drivers/spi/built-in.o
 .ARM.attributes
                0x0000000000000314       0x2d drivers/usb/eth/built-in.o
 .ARM.attributes
                0x0000000000000341       0x2d drivers/usb/gadget/built-in.o
 .ARM.attributes
                0x000000000000036e       0x2d drivers/usb/host/built-in.o
 .ARM.attributes
                0x000000000000039b       0x2d fs/built-in.o
 .ARM.attributes
                0x00000000000003c8       0x2d lib/built-in.o
 .ARM.attributes
                0x00000000000003f5       0x2d net/built-in.o
 .ARM.attributes
                0x0000000000000422       0x2d test/dm/built-in.o
 .ARM.attributes
                0x000000000000044f       0x2d arch/arm/lib/eabi_compat.o
 .ARM.attributes
                0x000000000000047c       0x23 /home/angel/bombardier-bsp/emsv5board/tmp/sysroots/ems_v5/usr/lib/arm-poky-linux-gnueabi/4.9.2/libgcc.a(_udivsi3.o)
 .ARM.attributes
                0x000000000000049f       0x23 /home/angel/bombardier-bsp/emsv5board/tmp/sysroots/ems_v5/usr/lib/arm-poky-linux-gnueabi/4.9.2/libgcc.a(_divsi3.o)
 .ARM.attributes
                0x00000000000004c2       0x23 /home/angel/bombardier-bsp/emsv5board/tmp/sysroots/ems_v5/usr/lib/arm-poky-linux-gnueabi/4.9.2/libgcc.a(_lshrdi3.o)
 .ARM.attributes
                0x00000000000004e5       0x23 /home/angel/bombardier-bsp/emsv5board/tmp/sysroots/ems_v5/usr/lib/arm-poky-linux-gnueabi/4.9.2/libgcc.a(_ashldi3.o)
 .ARM.attributes
                0x0000000000000508       0x23 /home/angel/bombardier-bsp/emsv5board/tmp/sysroots/ems_v5/usr/lib/arm-poky-linux-gnueabi/4.9.2/libgcc.a(_dvmd_lnx.o)

.comment        0x0000000000000000       0x11
 .comment       0x0000000000000000       0x11 arch/arm/cpu/armv7/built-in.o
                                         0x7e (size before relaxing)
 .comment       0x0000000000000000       0x90 arch/arm/imx-common/built-in.o
 .comment       0x0000000000000000       0xa2 arch/arm/lib/built-in.o
 .comment       0x0000000000000000       0x12 board/freescale/mx6sabresd/built-in.o
 .comment       0x0000000000000000      0x510 common/built-in.o
 .comment       0x0000000000000000       0x24 disk/built-in.o
 .comment       0x0000000000000000      0x144 drivers/built-in.o
 .comment       0x0000000000000000       0x12 drivers/gpio/built-in.o
 .comment       0x0000000000000000       0x24 drivers/i2c/built-in.o
 .comment       0x0000000000000000       0x36 drivers/mmc/built-in.o
 .comment       0x0000000000000000       0x48 drivers/mtd/spi/built-in.o
 .comment       0x0000000000000000       0x12 drivers/net/built-in.o
 .comment       0x0000000000000000       0x24 drivers/net/phy/built-in.o
 .comment       0x0000000000000000       0x48 drivers/pci/built-in.o
 .comment       0x0000000000000000       0x24 drivers/power/built-in.o
 .comment       0x0000000000000000       0x24 drivers/serial/built-in.o
 .comment       0x0000000000000000       0x24 drivers/spi/built-in.o
 .comment       0x0000000000000000       0x24 drivers/usb/eth/built-in.o
 .comment       0x0000000000000000       0x6c drivers/usb/gadget/built-in.o
 .comment       0x0000000000000000       0x24 drivers/usb/host/built-in.o
 .comment       0x0000000000000000       0xa2 fs/built-in.o
 .comment       0x0000000000000000      0x240 lib/built-in.o
 .comment       0x0000000000000000       0x90 net/built-in.o
 .comment       0x0000000000000000       0x12 test/dm/built-in.o
 .comment       0x0000000000000000       0x12 arch/arm/lib/eabi_compat.o

.note.GNU-stack
                0x0000000000000000        0x0
 .note.GNU-stack
                0x0000000000000000        0x0 arch/arm/cpu/armv7/built-in.o
 .note.GNU-stack
                0x0000000000000000        0x0 arch/arm/imx-common/built-in.o
 .note.GNU-stack
                0x0000000000000000        0x0 arch/arm/lib/built-in.o
 .note.GNU-stack
                0x0000000000000000        0x0 board/freescale/mx6sabresd/built-in.o
 .note.GNU-stack
                0x0000000000000000        0x0 common/built-in.o
 .note.GNU-stack
                0x0000000000000000        0x0 disk/built-in.o
 .note.GNU-stack
                0x0000000000000000        0x0 drivers/built-in.o
 .note.GNU-stack
                0x0000000000000000        0x0 drivers/gpio/built-in.o
 .note.GNU-stack
                0x0000000000000000        0x0 drivers/i2c/built-in.o
 .note.GNU-stack
                0x0000000000000000        0x0 drivers/mmc/built-in.o
 .note.GNU-stack
                0x0000000000000000        0x0 drivers/mtd/spi/built-in.o
 .note.GNU-stack
                0x0000000000000000        0x0 drivers/net/built-in.o
 .note.GNU-stack
                0x0000000000000000        0x0 drivers/net/phy/built-in.o
 .note.GNU-stack
                0x0000000000000000        0x0 drivers/pci/built-in.o
 .note.GNU-stack
                0x0000000000000000        0x0 drivers/power/built-in.o
 .note.GNU-stack
                0x0000000000000000        0x0 drivers/serial/built-in.o
 .note.GNU-stack
                0x0000000000000000        0x0 drivers/spi/built-in.o
 .note.GNU-stack
                0x0000000000000000        0x0 drivers/usb/eth/built-in.o
 .note.GNU-stack
                0x0000000000000000        0x0 drivers/usb/gadget/built-in.o
 .note.GNU-stack
                0x0000000000000000        0x0 drivers/usb/host/built-in.o
 .note.GNU-stack
                0x0000000000000000        0x0 fs/built-in.o
 .note.GNU-stack
                0x0000000000000000        0x0 lib/built-in.o
 .note.GNU-stack
                0x0000000000000000        0x0 net/built-in.o
 .note.GNU-stack
                0x0000000000000000        0x0 test/dm/built-in.o
 .note.GNU-stack
                0x0000000000000000        0x0 arch/arm/lib/eabi_compat.o
 .note.GNU-stack
                0x0000000000000000        0x0 /home/angel/bombardier-bsp/emsv5board/tmp/sysroots/ems_v5/usr/lib/arm-poky-linux-gnueabi/4.9.2/libgcc.a(_udivsi3.o)
 .note.GNU-stack
                0x0000000000000000        0x0 /home/angel/bombardier-bsp/emsv5board/tmp/sysroots/ems_v5/usr/lib/arm-poky-linux-gnueabi/4.9.2/libgcc.a(_divsi3.o)
 .note.GNU-stack
                0x0000000000000000        0x0 /home/angel/bombardier-bsp/emsv5board/tmp/sysroots/ems_v5/usr/lib/arm-poky-linux-gnueabi/4.9.2/libgcc.a(_lshrdi3.o)
 .note.GNU-stack
                0x0000000000000000        0x0 /home/angel/bombardier-bsp/emsv5board/tmp/sysroots/ems_v5/usr/lib/arm-poky-linux-gnueabi/4.9.2/libgcc.a(_ashldi3.o)
 .note.GNU-stack
                0x0000000000000000        0x0 /home/angel/bombardier-bsp/emsv5board/tmp/sysroots/ems_v5/usr/lib/arm-poky-linux-gnueabi/4.9.2/libgcc.a(_dvmd_lnx.o)

.debug_line     0x0000000000000000    0x22678
 .debug_line    0x0000000000000000       0x95 arch/arm/cpu/armv7/start.o
 .debug_line    0x0000000000000095      0xf7b arch/arm/cpu/armv7/built-in.o
 .debug_line    0x0000000000001010      0xd5e arch/arm/imx-common/built-in.o
 .debug_line    0x0000000000001d6e      0xe95 arch/arm/lib/built-in.o
 .debug_line    0x0000000000002c03      0x419 board/freescale/mx6sabresd/built-in.o
 .debug_line    0x000000000000301c     0xb9fd common/built-in.o
 .debug_line    0x000000000000ea19      0x611 disk/built-in.o
 .debug_line    0x000000000000f02a     0x31da drivers/built-in.o
 .debug_line    0x0000000000012204      0x18e drivers/gpio/built-in.o
 .debug_line    0x0000000000012392      0x554 drivers/i2c/built-in.o
 .debug_line    0x00000000000128e6      0xf43 drivers/mmc/built-in.o
 .debug_line    0x0000000000013829      0x7d6 drivers/mtd/spi/built-in.o
 .debug_line    0x0000000000013fff      0x51f drivers/net/built-in.o
 .debug_line    0x000000000001451e      0x7d1 drivers/net/phy/built-in.o
 .debug_line    0x0000000000014cef      0xdde drivers/pci/built-in.o
 .debug_line    0x0000000000015acd      0x3b1 drivers/power/built-in.o
 .debug_line    0x0000000000015e7e      0x54c drivers/serial/built-in.o
 .debug_line    0x00000000000163ca      0x444 drivers/spi/built-in.o
 .debug_line    0x000000000001680e      0x578 drivers/usb/eth/built-in.o
 .debug_line    0x0000000000016d86     0x226b drivers/usb/gadget/built-in.o
 .debug_line    0x0000000000018ff1      0x8cf drivers/usb/host/built-in.o
 .debug_line    0x00000000000198c0     0x2a32 fs/built-in.o
 .debug_line    0x000000000001c2f2     0x422d lib/built-in.o
 .debug_line    0x000000000002051f     0x1ab9 net/built-in.o
 .debug_line    0x0000000000021fd8      0x204 test/dm/built-in.o
 .debug_line    0x00000000000221dc      0x12f arch/arm/lib/eabi_compat.o
 .debug_line    0x000000000002230b       0xbf /home/angel/bombardier-bsp/emsv5board/tmp/sysroots/ems_v5/usr/lib/arm-poky-linux-gnueabi/4.9.2/libgcc.a(_udivsi3.o)
 .debug_line    0x00000000000223ca       0xcb /home/angel/bombardier-bsp/emsv5board/tmp/sysroots/ems_v5/usr/lib/arm-poky-linux-gnueabi/4.9.2/libgcc.a(_divsi3.o)
 .debug_line    0x0000000000022495       0xa1 /home/angel/bombardier-bsp/emsv5board/tmp/sysroots/ems_v5/usr/lib/arm-poky-linux-gnueabi/4.9.2/libgcc.a(_lshrdi3.o)
 .debug_line    0x0000000000022536       0xa1 /home/angel/bombardier-bsp/emsv5board/tmp/sysroots/ems_v5/usr/lib/arm-poky-linux-gnueabi/4.9.2/libgcc.a(_ashldi3.o)
 .debug_line    0x00000000000225d7       0xa1 /home/angel/bombardier-bsp/emsv5board/tmp/sysroots/ems_v5/usr/lib/arm-poky-linux-gnueabi/4.9.2/libgcc.a(_dvmd_lnx.o)

.debug_info     0x0000000000000000    0xdeb4f
 .debug_info    0x0000000000000000       0xd2 arch/arm/cpu/armv7/start.o
 .debug_info    0x00000000000000d2     0x92ad arch/arm/cpu/armv7/built-in.o
 .debug_info    0x000000000000937f     0x6f50 arch/arm/imx-common/built-in.o
 .debug_info    0x00000000000102cf     0x5977 arch/arm/lib/built-in.o
 .debug_info    0x0000000000015c46     0x52c9 board/freescale/mx6sabresd/built-in.o
 .debug_info    0x000000000001af0f    0x4dbc5 common/built-in.o
 .debug_info    0x0000000000068ad4     0x232d disk/built-in.o
 .debug_info    0x000000000006ae01    0x14fef drivers/built-in.o
 .debug_info    0x000000000007fdf0      0x6f8 drivers/gpio/built-in.o
 .debug_info    0x00000000000804e8     0x2ad5 drivers/i2c/built-in.o
 .debug_info    0x0000000000082fbd     0x593d drivers/mmc/built-in.o
 .debug_info    0x00000000000888fa     0x34d1 drivers/mtd/spi/built-in.o
 .debug_info    0x000000000008bdcb     0x30f2 drivers/net/built-in.o
 .debug_info    0x000000000008eebd     0x30f4 drivers/net/phy/built-in.o
 .debug_info    0x0000000000091fb1     0x6460 drivers/pci/built-in.o
 .debug_info    0x0000000000098411     0x1a09 drivers/power/built-in.o
 .debug_info    0x0000000000099e1a     0x1f62 drivers/serial/built-in.o
 .debug_info    0x000000000009bd7c     0x161a drivers/spi/built-in.o
 .debug_info    0x000000000009d396     0x2a98 drivers/usb/eth/built-in.o
 .debug_info    0x000000000009fe2e     0xd0fc drivers/usb/gadget/built-in.o
 .debug_info    0x00000000000acf2a     0x3dc5 drivers/usb/host/built-in.o
 .debug_info    0x00000000000b0cef    0x109ee fs/built-in.o
 .debug_info    0x00000000000c16dd    0x114d4 lib/built-in.o
 .debug_info    0x00000000000d2bb1     0xa64c net/built-in.o
 .debug_info    0x00000000000dd1fd      0xe5b test/dm/built-in.o
 .debug_info    0x00000000000de058      0x4cb arch/arm/lib/eabi_compat.o
 .debug_info    0x00000000000de523      0x13c /home/angel/bombardier-bsp/emsv5board/tmp/sysroots/ems_v5/usr/lib/arm-poky-linux-gnueabi/4.9.2/libgcc.a(_udivsi3.o)
 .debug_info    0x00000000000de65f      0x13c /home/angel/bombardier-bsp/emsv5board/tmp/sysroots/ems_v5/usr/lib/arm-poky-linux-gnueabi/4.9.2/libgcc.a(_divsi3.o)
 .debug_info    0x00000000000de79b      0x13c /home/angel/bombardier-bsp/emsv5board/tmp/sysroots/ems_v5/usr/lib/arm-poky-linux-gnueabi/4.9.2/libgcc.a(_lshrdi3.o)
 .debug_info    0x00000000000de8d7      0x13c /home/angel/bombardier-bsp/emsv5board/tmp/sysroots/ems_v5/usr/lib/arm-poky-linux-gnueabi/4.9.2/libgcc.a(_ashldi3.o)
 .debug_info    0x00000000000dea13      0x13c /home/angel/bombardier-bsp/emsv5board/tmp/sysroots/ems_v5/usr/lib/arm-poky-linux-gnueabi/4.9.2/libgcc.a(_dvmd_lnx.o)

.debug_abbrev   0x0000000000000000    0x250a9
 .debug_abbrev  0x0000000000000000       0x14 arch/arm/cpu/armv7/start.o
 .debug_abbrev  0x0000000000000014     0x133d arch/arm/cpu/armv7/built-in.o
 .debug_abbrev  0x0000000000001351     0x12a2 arch/arm/imx-common/built-in.o
 .debug_abbrev  0x00000000000025f3     0x1301 arch/arm/lib/built-in.o
 .debug_abbrev  0x00000000000038f4      0x574 board/freescale/mx6sabresd/built-in.o
 .debug_abbrev  0x0000000000003e68     0xd5b7 common/built-in.o
 .debug_abbrev  0x000000000001141f      0x70b disk/built-in.o
 .debug_abbrev  0x0000000000011b2a     0x3647 drivers/built-in.o
 .debug_abbrev  0x0000000000015171      0x216 drivers/gpio/built-in.o
 .debug_abbrev  0x0000000000015387      0x86e drivers/i2c/built-in.o
 .debug_abbrev  0x0000000000015bf5      0xd89 drivers/mmc/built-in.o
 .debug_abbrev  0x000000000001697e      0xb25 drivers/mtd/spi/built-in.o
 .debug_abbrev  0x00000000000174a3      0x59c drivers/net/built-in.o
 .debug_abbrev  0x0000000000017a3f      0x7c5 drivers/net/phy/built-in.o
 .debug_abbrev  0x0000000000018204      0xe2c drivers/pci/built-in.o
 .debug_abbrev  0x0000000000019030      0x5bb drivers/power/built-in.o
 .debug_abbrev  0x00000000000195eb      0x707 drivers/serial/built-in.o
 .debug_abbrev  0x0000000000019cf2      0x628 drivers/spi/built-in.o
 .debug_abbrev  0x000000000001a31a      0x73e drivers/usb/eth/built-in.o
 .debug_abbrev  0x000000000001aa58     0x19db drivers/usb/gadget/built-in.o
 .debug_abbrev  0x000000000001c433      0x844 drivers/usb/host/built-in.o
 .debug_abbrev  0x000000000001cc77     0x205f fs/built-in.o
 .debug_abbrev  0x000000000001ecd6     0x4006 lib/built-in.o
 .debug_abbrev  0x0000000000022cdc     0x1ecb net/built-in.o
 .debug_abbrev  0x0000000000024ba7      0x2e6 test/dm/built-in.o
 .debug_abbrev  0x0000000000024e8d      0x1b8 arch/arm/lib/eabi_compat.o
 .debug_abbrev  0x0000000000025045       0x14 /home/angel/bombardier-bsp/emsv5board/tmp/sysroots/ems_v5/usr/lib/arm-poky-linux-gnueabi/4.9.2/libgcc.a(_udivsi3.o)
 .debug_abbrev  0x0000000000025059       0x14 /home/angel/bombardier-bsp/emsv5board/tmp/sysroots/ems_v5/usr/lib/arm-poky-linux-gnueabi/4.9.2/libgcc.a(_divsi3.o)
 .debug_abbrev  0x000000000002506d       0x14 /home/angel/bombardier-bsp/emsv5board/tmp/sysroots/ems_v5/usr/lib/arm-poky-linux-gnueabi/4.9.2/libgcc.a(_lshrdi3.o)
 .debug_abbrev  0x0000000000025081       0x14 /home/angel/bombardier-bsp/emsv5board/tmp/sysroots/ems_v5/usr/lib/arm-poky-linux-gnueabi/4.9.2/libgcc.a(_ashldi3.o)
 .debug_abbrev  0x0000000000025095       0x14 /home/angel/bombardier-bsp/emsv5board/tmp/sysroots/ems_v5/usr/lib/arm-poky-linux-gnueabi/4.9.2/libgcc.a(_dvmd_lnx.o)

.debug_aranges  0x0000000000000000     0x4828
 .debug_aranges
                0x0000000000000000       0x20 arch/arm/cpu/armv7/start.o
 .debug_aranges
                0x0000000000000020      0x2d8 arch/arm/cpu/armv7/built-in.o
 .debug_aranges
                0x00000000000002f8      0x1b0 arch/arm/imx-common/built-in.o
 .debug_aranges
                0x00000000000004a8      0x2a0 arch/arm/lib/built-in.o
 .debug_aranges
                0x0000000000000748       0xa8 board/freescale/mx6sabresd/built-in.o
 .debug_aranges
                0x00000000000007f0     0x1838 common/built-in.o
 .debug_aranges
                0x0000000000002028       0xa0 disk/built-in.o
 .debug_aranges
                0x00000000000020c8      0x5f8 drivers/built-in.o
 .debug_aranges
                0x00000000000026c0       0x48 drivers/gpio/built-in.o
 .debug_aranges
                0x0000000000002708      0x118 drivers/i2c/built-in.o
 .debug_aranges
                0x0000000000002820      0x1c0 drivers/mmc/built-in.o
 .debug_aranges
                0x00000000000029e0       0xf8 drivers/mtd/spi/built-in.o
 .debug_aranges
                0x0000000000002ad8       0x80 drivers/net/built-in.o
 .debug_aranges
                0x0000000000002b58      0x140 drivers/net/phy/built-in.o
 .debug_aranges
                0x0000000000002c98      0x290 drivers/pci/built-in.o
 .debug_aranges
                0x0000000000002f28       0x78 drivers/power/built-in.o
 .debug_aranges
                0x0000000000002fa0      0x110 drivers/serial/built-in.o
 .debug_aranges
                0x00000000000030b0       0x98 drivers/spi/built-in.o
 .debug_aranges
                0x0000000000003148       0xb0 drivers/usb/eth/built-in.o
 .debug_aranges
                0x00000000000031f8      0x318 drivers/usb/gadget/built-in.o
 .debug_aranges
                0x0000000000003510      0x100 drivers/usb/host/built-in.o
 .debug_aranges
                0x0000000000003610      0x440 fs/built-in.o
 .debug_aranges
                0x0000000000003a50      0x950 lib/built-in.o
 .debug_aranges
                0x00000000000043a0      0x370 net/built-in.o
 .debug_aranges
                0x0000000000004710       0x38 test/dm/built-in.o
 .debug_aranges
                0x0000000000004748       0x40 arch/arm/lib/eabi_compat.o
 .debug_aranges
                0x0000000000004788       0x20 /home/angel/bombardier-bsp/emsv5board/tmp/sysroots/ems_v5/usr/lib/arm-poky-linux-gnueabi/4.9.2/libgcc.a(_udivsi3.o)
 .debug_aranges
                0x00000000000047a8       0x20 /home/angel/bombardier-bsp/emsv5board/tmp/sysroots/ems_v5/usr/lib/arm-poky-linux-gnueabi/4.9.2/libgcc.a(_divsi3.o)
 .debug_aranges
                0x00000000000047c8       0x20 /home/angel/bombardier-bsp/emsv5board/tmp/sysroots/ems_v5/usr/lib/arm-poky-linux-gnueabi/4.9.2/libgcc.a(_lshrdi3.o)
 .debug_aranges
                0x00000000000047e8       0x20 /home/angel/bombardier-bsp/emsv5board/tmp/sysroots/ems_v5/usr/lib/arm-poky-linux-gnueabi/4.9.2/libgcc.a(_ashldi3.o)
 .debug_aranges
                0x0000000000004808       0x20 /home/angel/bombardier-bsp/emsv5board/tmp/sysroots/ems_v5/usr/lib/arm-poky-linux-gnueabi/4.9.2/libgcc.a(_dvmd_lnx.o)

.debug_frame    0x0000000000000000     0xc304
 .debug_frame   0x0000000000000000      0x5e8 arch/arm/cpu/armv7/built-in.o
 .debug_frame   0x00000000000005e8      0x3a8 arch/arm/imx-common/built-in.o
 .debug_frame   0x0000000000000990      0x450 arch/arm/lib/built-in.o
 .debug_frame   0x0000000000000de0      0x1a4 board/freescale/mx6sabresd/built-in.o
 .debug_frame   0x0000000000000f84     0x42f0 common/built-in.o
 .debug_frame   0x0000000000005274      0x20c disk/built-in.o
 .debug_frame   0x0000000000005480      0xf74 drivers/built-in.o
 .debug_frame   0x00000000000063f4       0x78 drivers/gpio/built-in.o
 .debug_frame   0x000000000000646c      0x30c drivers/i2c/built-in.o
 .debug_frame   0x0000000000006778      0x588 drivers/mmc/built-in.o
 .debug_frame   0x0000000000006d00      0x2ac drivers/mtd/spi/built-in.o
 .debug_frame   0x0000000000006fac      0x188 drivers/net/built-in.o
 .debug_frame   0x0000000000007134      0x3ac drivers/net/phy/built-in.o
 .debug_frame   0x00000000000074e0      0x7f8 drivers/pci/built-in.o
 .debug_frame   0x0000000000007cd8      0x124 drivers/power/built-in.o
 .debug_frame   0x0000000000007dfc      0x294 drivers/serial/built-in.o
 .debug_frame   0x0000000000008090      0x174 drivers/spi/built-in.o
 .debug_frame   0x0000000000008204      0x22c drivers/usb/eth/built-in.o
 .debug_frame   0x0000000000008430      0x90c drivers/usb/gadget/built-in.o
 .debug_frame   0x0000000000008d3c      0x2f8 drivers/usb/host/built-in.o
 .debug_frame   0x0000000000009034      0xe14 fs/built-in.o
 .debug_frame   0x0000000000009e48     0x18f8 lib/built-in.o
 .debug_frame   0x000000000000b740      0xa84 net/built-in.o
 .debug_frame   0x000000000000c1c4       0x98 test/dm/built-in.o
 .debug_frame   0x000000000000c25c       0x68 arch/arm/lib/eabi_compat.o
 .debug_frame   0x000000000000c2c4       0x20 /home/angel/bombardier-bsp/emsv5board/tmp/sysroots/ems_v5/usr/lib/arm-poky-linux-gnueabi/4.9.2/libgcc.a(_udivsi3.o)
 .debug_frame   0x000000000000c2e4       0x20 /home/angel/bombardier-bsp/emsv5board/tmp/sysroots/ems_v5/usr/lib/arm-poky-linux-gnueabi/4.9.2/libgcc.a(_divsi3.o)

.debug_str      0x0000000000000000    0x222fb
 .debug_str     0x0000000000000000     0x6a76 arch/arm/cpu/armv7/built-in.o
                                       0x9719 (size before relaxing)
 .debug_str     0x0000000000006a76      0xa80 arch/arm/imx-common/built-in.o
                                       0x8546 (size before relaxing)
 .debug_str     0x00000000000074f6     0x12ee arch/arm/lib/built-in.o
                                       0x470c (size before relaxing)
 .debug_str     0x00000000000087e4     0x808a board/freescale/mx6sabresd/built-in.o
                                       0x8f74 (size before relaxing)
 .debug_str     0x000000000001086e     0x6650 common/built-in.o
                                      0x2ad59 (size before relaxing)
 .debug_str     0x0000000000016ebe      0x26b disk/built-in.o
                                        0xf9d (size before relaxing)
 .debug_str     0x0000000000017129     0x294e drivers/built-in.o
                                       0xbc8d (size before relaxing)
 .debug_str     0x0000000000019a77       0x8a drivers/gpio/built-in.o
                                        0x51e (size before relaxing)
 .debug_str     0x0000000000019b01      0x255 drivers/i2c/built-in.o
                                       0x1162 (size before relaxing)
 .debug_str     0x0000000000019d56      0x53d drivers/mmc/built-in.o
                                       0x228a (size before relaxing)
 .debug_str     0x000000000001a293      0x441 drivers/mtd/spi/built-in.o
                                       0x1f63 (size before relaxing)
 .debug_str     0x000000000001a6d4      0x743 drivers/net/built-in.o
                                       0x1168 (size before relaxing)
 .debug_str     0x000000000001ae17      0x370 drivers/net/phy/built-in.o
                                       0x1293 (size before relaxing)
 .debug_str     0x000000000001b187      0xada drivers/pci/built-in.o
                                       0x288d (size before relaxing)
 .debug_str     0x000000000001bc61      0x229 drivers/power/built-in.o
                                        0xd67 (size before relaxing)
 .debug_str     0x000000000001be8a      0x1f5 drivers/serial/built-in.o
                                       0x1428 (size before relaxing)
 .debug_str     0x000000000001c07f      0x167 drivers/spi/built-in.o
                                        0xcce (size before relaxing)
 .debug_str     0x000000000001c1e6      0x31e drivers/usb/eth/built-in.o
                                       0x1541 (size before relaxing)
 .debug_str     0x000000000001c504     0x1886 drivers/usb/gadget/built-in.o
                                       0x4ccb (size before relaxing)
 .debug_str     0x000000000001dd8a      0x47e drivers/usb/host/built-in.o
                                       0x20f2 (size before relaxing)
 .debug_str     0x000000000001e208     0x1b4e fs/built-in.o
                                       0x6788 (size before relaxing)
 .debug_str     0x000000000001fd56     0x1349 lib/built-in.o
                                       0x9bfe (size before relaxing)
 .debug_str     0x000000000002109f     0x1079 net/built-in.o
                                       0x61c0 (size before relaxing)
 .debug_str     0x0000000000022118      0x16c test/dm/built-in.o
                                        0xa10 (size before relaxing)
 .debug_str     0x0000000000022284       0x77 arch/arm/lib/eabi_compat.o
                                        0x4b7 (size before relaxing)

.debug_loc      0x0000000000000000    0x7c513
 .debug_loc     0x0000000000000000     0x1c26 arch/arm/cpu/armv7/built-in.o
 .debug_loc     0x0000000000001c26      0xea5 arch/arm/imx-common/built-in.o
 .debug_loc     0x0000000000002acb      0xa67 arch/arm/lib/built-in.o
 .debug_loc     0x0000000000003532      0x566 board/freescale/mx6sabresd/built-in.o
 .debug_loc     0x0000000000003a98    0x20727 common/built-in.o
 .debug_loc     0x00000000000241bf     0x10ec disk/built-in.o
 .debug_loc     0x00000000000252ab     0x9ad1 drivers/built-in.o
 .debug_loc     0x000000000002ed7c      0x523 drivers/gpio/built-in.o
 .debug_loc     0x000000000002f29f     0x1264 drivers/i2c/built-in.o
 .debug_loc     0x0000000000030503     0x2bb5 drivers/mmc/built-in.o
 .debug_loc     0x00000000000330b8     0x133f drivers/mtd/spi/built-in.o
 .debug_loc     0x00000000000343f7     0x1428 drivers/net/built-in.o
 .debug_loc     0x000000000003581f     0x1e39 drivers/net/phy/built-in.o
 .debug_loc     0x0000000000037658     0x29f8 drivers/pci/built-in.o
 .debug_loc     0x000000000003a050      0x669 drivers/power/built-in.o
 .debug_loc     0x000000000003a6b9      0x563 drivers/serial/built-in.o
 .debug_loc     0x000000000003ac1c      0xe49 drivers/spi/built-in.o
 .debug_loc     0x000000000003ba65      0xad9 drivers/usb/eth/built-in.o
 .debug_loc     0x000000000003c53e     0x771e drivers/usb/gadget/built-in.o
 .debug_loc     0x0000000000043c5c     0x1b22 drivers/usb/host/built-in.o
 .debug_loc     0x000000000004577e    0x247db fs/built-in.o
 .debug_loc     0x0000000000069f59     0xe047 lib/built-in.o
 .debug_loc     0x0000000000077fa0     0x3fbf net/built-in.o
 .debug_loc     0x000000000007bf5f      0x4ac test/dm/built-in.o
 .debug_loc     0x000000000007c40b      0x108 arch/arm/lib/eabi_compat.o

.debug_ranges   0x0000000000000000     0x8dc0
 .debug_ranges  0x0000000000000000      0x548 arch/arm/cpu/armv7/built-in.o
 .debug_ranges  0x0000000000000548      0x2a8 arch/arm/imx-common/built-in.o
 .debug_ranges  0x00000000000007f0      0x248 arch/arm/lib/built-in.o
 .debug_ranges  0x0000000000000a38      0x160 board/freescale/mx6sabresd/built-in.o
 .debug_ranges  0x0000000000000b98     0x24b8 common/built-in.o
 .debug_ranges  0x0000000000003050      0x120 disk/built-in.o
 .debug_ranges  0x0000000000003170     0x1020 drivers/built-in.o
 .debug_ranges  0x0000000000004190       0x50 drivers/gpio/built-in.o
 .debug_ranges  0x00000000000041e0      0x218 drivers/i2c/built-in.o
 .debug_ranges  0x00000000000043f8      0x3a8 drivers/mmc/built-in.o
 .debug_ranges  0x00000000000047a0      0x188 drivers/mtd/spi/built-in.o
 .debug_ranges  0x0000000000004928      0x3e0 drivers/net/built-in.o
 .debug_ranges  0x0000000000004d08      0x408 drivers/net/phy/built-in.o
 .debug_ranges  0x0000000000005110      0x490 drivers/pci/built-in.o
 .debug_ranges  0x00000000000055a0       0xa0 drivers/power/built-in.o
 .debug_ranges  0x0000000000005640      0x108 drivers/serial/built-in.o
 .debug_ranges  0x0000000000005748      0x158 drivers/spi/built-in.o
 .debug_ranges  0x00000000000058a0      0x180 drivers/usb/eth/built-in.o
 .debug_ranges  0x0000000000005a20     0x1060 drivers/usb/gadget/built-in.o
 .debug_ranges  0x0000000000006a80      0x1e8 drivers/usb/host/built-in.o
 .debug_ranges  0x0000000000006c68      0xa38 fs/built-in.o
 .debug_ranges  0x00000000000076a0      0xfa0 lib/built-in.o
 .debug_ranges  0x0000000000008640      0x6f0 net/built-in.o
 .debug_ranges  0x0000000000008d30       0x60 test/dm/built-in.o
 .debug_ranges  0x0000000000008d90       0x30 arch/arm/lib/eabi_compat.o
